
kernel/kernel:     file format elf64-littleriscv


Disassembly of section .text:

0000000080000000 <_entry>:
    80000000:	00014117          	auipc	sp,0x14
    80000004:	f6010113          	addi	sp,sp,-160 # 80013f60 <stack0>
    80000008:	6505                	lui	a0,0x1
    8000000a:	f14025f3          	csrr	a1,mhartid
    8000000e:	0585                	addi	a1,a1,1
    80000010:	02b50533          	mul	a0,a0,a1
    80000014:	912a                	add	sp,sp,a0
    80000016:	757040ef          	jal	80004f6c <start>

000000008000001a <spin>:
    8000001a:	a001                	j	8000001a <spin>

000000008000001c <kfree>:
// which normally should have been returned by a
// call to kalloc().  (The exception is when
// initializing the allocator; see kinit above.)
void
kfree(void *pa)
{
    8000001c:	1101                	addi	sp,sp,-32
    8000001e:	ec06                	sd	ra,24(sp)
    80000020:	e822                	sd	s0,16(sp)
    80000022:	e426                	sd	s1,8(sp)
    80000024:	e04a                	sd	s2,0(sp)
    80000026:	1000                	addi	s0,sp,32
  struct run *r;

  if(((uint64)pa % PGSIZE) != 0 || (char*)pa < end || (uint64)pa >= PHYSTOP)
    80000028:	03451793          	slli	a5,a0,0x34
    8000002c:	e7a9                	bnez	a5,80000076 <kfree+0x5a>
    8000002e:	84aa                	mv	s1,a0
    80000030:	0001c797          	auipc	a5,0x1c
    80000034:	03078793          	addi	a5,a5,48 # 8001c060 <end>
    80000038:	02f56f63          	bltu	a0,a5,80000076 <kfree+0x5a>
    8000003c:	47c5                	li	a5,17
    8000003e:	07ee                	slli	a5,a5,0x1b
    80000040:	02f57b63          	bgeu	a0,a5,80000076 <kfree+0x5a>
    panic("kfree");

  // Fill with junk to catch dangling refs.
  memset(pa, 1, PGSIZE);
    80000044:	6605                	lui	a2,0x1
    80000046:	4585                	li	a1,1
    80000048:	106000ef          	jal	8000014e <memset>

  r = (struct run*)pa;

  acquire(&kmem.lock);
    8000004c:	00008917          	auipc	s2,0x8
    80000050:	8d490913          	addi	s2,s2,-1836 # 80007920 <kmem>
    80000054:	854a                	mv	a0,s2
    80000056:	17f050ef          	jal	800059d4 <acquire>
  r->next = kmem.freelist;
    8000005a:	01893783          	ld	a5,24(s2)
    8000005e:	e09c                	sd	a5,0(s1)
  kmem.freelist = r;
    80000060:	00993c23          	sd	s1,24(s2)
  release(&kmem.lock);
    80000064:	854a                	mv	a0,s2
    80000066:	203050ef          	jal	80005a68 <release>
}
    8000006a:	60e2                	ld	ra,24(sp)
    8000006c:	6442                	ld	s0,16(sp)
    8000006e:	64a2                	ld	s1,8(sp)
    80000070:	6902                	ld	s2,0(sp)
    80000072:	6105                	addi	sp,sp,32
    80000074:	8082                	ret
    panic("kfree");
    80000076:	00007517          	auipc	a0,0x7
    8000007a:	f8a50513          	addi	a0,a0,-118 # 80007000 <etext>
    8000007e:	628050ef          	jal	800056a6 <panic>

0000000080000082 <freerange>:
{
    80000082:	7179                	addi	sp,sp,-48
    80000084:	f406                	sd	ra,40(sp)
    80000086:	f022                	sd	s0,32(sp)
    80000088:	ec26                	sd	s1,24(sp)
    8000008a:	1800                	addi	s0,sp,48
  p = (char*)PGROUNDUP((uint64)pa_start);
    8000008c:	6785                	lui	a5,0x1
    8000008e:	fff78713          	addi	a4,a5,-1 # fff <_entry-0x7ffff001>
    80000092:	00e504b3          	add	s1,a0,a4
    80000096:	777d                	lui	a4,0xfffff
    80000098:	8cf9                	and	s1,s1,a4
  for(; p + PGSIZE <= (char*)pa_end; p += PGSIZE)
    8000009a:	94be                	add	s1,s1,a5
    8000009c:	0295e263          	bltu	a1,s1,800000c0 <freerange+0x3e>
    800000a0:	e84a                	sd	s2,16(sp)
    800000a2:	e44e                	sd	s3,8(sp)
    800000a4:	e052                	sd	s4,0(sp)
    800000a6:	892e                	mv	s2,a1
    kfree(p);
    800000a8:	8a3a                	mv	s4,a4
  for(; p + PGSIZE <= (char*)pa_end; p += PGSIZE)
    800000aa:	89be                	mv	s3,a5
    kfree(p);
    800000ac:	01448533          	add	a0,s1,s4
    800000b0:	f6dff0ef          	jal	8000001c <kfree>
  for(; p + PGSIZE <= (char*)pa_end; p += PGSIZE)
    800000b4:	94ce                	add	s1,s1,s3
    800000b6:	fe997be3          	bgeu	s2,s1,800000ac <freerange+0x2a>
    800000ba:	6942                	ld	s2,16(sp)
    800000bc:	69a2                	ld	s3,8(sp)
    800000be:	6a02                	ld	s4,0(sp)
}
    800000c0:	70a2                	ld	ra,40(sp)
    800000c2:	7402                	ld	s0,32(sp)
    800000c4:	64e2                	ld	s1,24(sp)
    800000c6:	6145                	addi	sp,sp,48
    800000c8:	8082                	ret

00000000800000ca <kinit>:
{
    800000ca:	1141                	addi	sp,sp,-16
    800000cc:	e406                	sd	ra,8(sp)
    800000ce:	e022                	sd	s0,0(sp)
    800000d0:	0800                	addi	s0,sp,16
  initlock(&kmem.lock, "kmem");
    800000d2:	00007597          	auipc	a1,0x7
    800000d6:	f3e58593          	addi	a1,a1,-194 # 80007010 <etext+0x10>
    800000da:	00008517          	auipc	a0,0x8
    800000de:	84650513          	addi	a0,a0,-1978 # 80007920 <kmem>
    800000e2:	06f050ef          	jal	80005950 <initlock>
  freerange(end, (void*)PHYSTOP);
    800000e6:	45c5                	li	a1,17
    800000e8:	05ee                	slli	a1,a1,0x1b
    800000ea:	0001c517          	auipc	a0,0x1c
    800000ee:	f7650513          	addi	a0,a0,-138 # 8001c060 <end>
    800000f2:	f91ff0ef          	jal	80000082 <freerange>
}
    800000f6:	60a2                	ld	ra,8(sp)
    800000f8:	6402                	ld	s0,0(sp)
    800000fa:	0141                	addi	sp,sp,16
    800000fc:	8082                	ret

00000000800000fe <kalloc>:
// Allocate one 4096-byte page of physical memory.
// Returns a pointer that the kernel can use.
// Returns 0 if the memory cannot be allocated.
void *
kalloc(void)
{
    800000fe:	1101                	addi	sp,sp,-32
    80000100:	ec06                	sd	ra,24(sp)
    80000102:	e822                	sd	s0,16(sp)
    80000104:	e426                	sd	s1,8(sp)
    80000106:	1000                	addi	s0,sp,32
  struct run *r;

  acquire(&kmem.lock);
    80000108:	00008497          	auipc	s1,0x8
    8000010c:	81848493          	addi	s1,s1,-2024 # 80007920 <kmem>
    80000110:	8526                	mv	a0,s1
    80000112:	0c3050ef          	jal	800059d4 <acquire>
  r = kmem.freelist;
    80000116:	6c84                	ld	s1,24(s1)
  if(r)
    80000118:	c485                	beqz	s1,80000140 <kalloc+0x42>
    kmem.freelist = r->next;
    8000011a:	609c                	ld	a5,0(s1)
    8000011c:	00008517          	auipc	a0,0x8
    80000120:	80450513          	addi	a0,a0,-2044 # 80007920 <kmem>
    80000124:	ed1c                	sd	a5,24(a0)
  release(&kmem.lock);
    80000126:	143050ef          	jal	80005a68 <release>

  if(r)
    memset((char*)r, 5, PGSIZE); // fill with junk
    8000012a:	6605                	lui	a2,0x1
    8000012c:	4595                	li	a1,5
    8000012e:	8526                	mv	a0,s1
    80000130:	01e000ef          	jal	8000014e <memset>
  return (void*)r;
}
    80000134:	8526                	mv	a0,s1
    80000136:	60e2                	ld	ra,24(sp)
    80000138:	6442                	ld	s0,16(sp)
    8000013a:	64a2                	ld	s1,8(sp)
    8000013c:	6105                	addi	sp,sp,32
    8000013e:	8082                	ret
  release(&kmem.lock);
    80000140:	00007517          	auipc	a0,0x7
    80000144:	7e050513          	addi	a0,a0,2016 # 80007920 <kmem>
    80000148:	121050ef          	jal	80005a68 <release>
  if(r)
    8000014c:	b7e5                	j	80000134 <kalloc+0x36>

000000008000014e <memset>:
#include "types.h"

void*
memset(void *dst, int c, uint n)
{
    8000014e:	1141                	addi	sp,sp,-16
    80000150:	e406                	sd	ra,8(sp)
    80000152:	e022                	sd	s0,0(sp)
    80000154:	0800                	addi	s0,sp,16
  char *cdst = (char *) dst;
  int i;
  for(i = 0; i < n; i++){
    80000156:	ca19                	beqz	a2,8000016c <memset+0x1e>
    80000158:	87aa                	mv	a5,a0
    8000015a:	1602                	slli	a2,a2,0x20
    8000015c:	9201                	srli	a2,a2,0x20
    8000015e:	00a60733          	add	a4,a2,a0
    cdst[i] = c;
    80000162:	00b78023          	sb	a1,0(a5)
  for(i = 0; i < n; i++){
    80000166:	0785                	addi	a5,a5,1
    80000168:	fee79de3          	bne	a5,a4,80000162 <memset+0x14>
  }
  return dst;
}
    8000016c:	60a2                	ld	ra,8(sp)
    8000016e:	6402                	ld	s0,0(sp)
    80000170:	0141                	addi	sp,sp,16
    80000172:	8082                	ret

0000000080000174 <memcmp>:

int
memcmp(const void *v1, const void *v2, uint n)
{
    80000174:	1141                	addi	sp,sp,-16
    80000176:	e406                	sd	ra,8(sp)
    80000178:	e022                	sd	s0,0(sp)
    8000017a:	0800                	addi	s0,sp,16
  const uchar *s1, *s2;

  s1 = v1;
  s2 = v2;
  while(n-- > 0){
    8000017c:	ca0d                	beqz	a2,800001ae <memcmp+0x3a>
    8000017e:	fff6069b          	addiw	a3,a2,-1 # fff <_entry-0x7ffff001>
    80000182:	1682                	slli	a3,a3,0x20
    80000184:	9281                	srli	a3,a3,0x20
    80000186:	0685                	addi	a3,a3,1
    80000188:	96aa                	add	a3,a3,a0
    if(*s1 != *s2)
    8000018a:	00054783          	lbu	a5,0(a0)
    8000018e:	0005c703          	lbu	a4,0(a1)
    80000192:	00e79863          	bne	a5,a4,800001a2 <memcmp+0x2e>
      return *s1 - *s2;
    s1++, s2++;
    80000196:	0505                	addi	a0,a0,1
    80000198:	0585                	addi	a1,a1,1
  while(n-- > 0){
    8000019a:	fed518e3          	bne	a0,a3,8000018a <memcmp+0x16>
  }

  return 0;
    8000019e:	4501                	li	a0,0
    800001a0:	a019                	j	800001a6 <memcmp+0x32>
      return *s1 - *s2;
    800001a2:	40e7853b          	subw	a0,a5,a4
}
    800001a6:	60a2                	ld	ra,8(sp)
    800001a8:	6402                	ld	s0,0(sp)
    800001aa:	0141                	addi	sp,sp,16
    800001ac:	8082                	ret
  return 0;
    800001ae:	4501                	li	a0,0
    800001b0:	bfdd                	j	800001a6 <memcmp+0x32>

00000000800001b2 <memmove>:

void*
memmove(void *dst, const void *src, uint n)
{
    800001b2:	1141                	addi	sp,sp,-16
    800001b4:	e406                	sd	ra,8(sp)
    800001b6:	e022                	sd	s0,0(sp)
    800001b8:	0800                	addi	s0,sp,16
  const char *s;
  char *d;

  if(n == 0)
    800001ba:	c205                	beqz	a2,800001da <memmove+0x28>
    return dst;
  
  s = src;
  d = dst;
  if(s < d && s + n > d){
    800001bc:	02a5e363          	bltu	a1,a0,800001e2 <memmove+0x30>
    s += n;
    d += n;
    while(n-- > 0)
      *--d = *--s;
  } else
    while(n-- > 0)
    800001c0:	1602                	slli	a2,a2,0x20
    800001c2:	9201                	srli	a2,a2,0x20
    800001c4:	00c587b3          	add	a5,a1,a2
{
    800001c8:	872a                	mv	a4,a0
      *d++ = *s++;
    800001ca:	0585                	addi	a1,a1,1
    800001cc:	0705                	addi	a4,a4,1 # fffffffffffff001 <end+0xffffffff7ffe2fa1>
    800001ce:	fff5c683          	lbu	a3,-1(a1)
    800001d2:	fed70fa3          	sb	a3,-1(a4)
    while(n-- > 0)
    800001d6:	feb79ae3          	bne	a5,a1,800001ca <memmove+0x18>

  return dst;
}
    800001da:	60a2                	ld	ra,8(sp)
    800001dc:	6402                	ld	s0,0(sp)
    800001de:	0141                	addi	sp,sp,16
    800001e0:	8082                	ret
  if(s < d && s + n > d){
    800001e2:	02061693          	slli	a3,a2,0x20
    800001e6:	9281                	srli	a3,a3,0x20
    800001e8:	00d58733          	add	a4,a1,a3
    800001ec:	fce57ae3          	bgeu	a0,a4,800001c0 <memmove+0xe>
    d += n;
    800001f0:	96aa                	add	a3,a3,a0
    while(n-- > 0)
    800001f2:	fff6079b          	addiw	a5,a2,-1
    800001f6:	1782                	slli	a5,a5,0x20
    800001f8:	9381                	srli	a5,a5,0x20
    800001fa:	fff7c793          	not	a5,a5
    800001fe:	97ba                	add	a5,a5,a4
      *--d = *--s;
    80000200:	177d                	addi	a4,a4,-1
    80000202:	16fd                	addi	a3,a3,-1
    80000204:	00074603          	lbu	a2,0(a4)
    80000208:	00c68023          	sb	a2,0(a3)
    while(n-- > 0)
    8000020c:	fee79ae3          	bne	a5,a4,80000200 <memmove+0x4e>
    80000210:	b7e9                	j	800001da <memmove+0x28>

0000000080000212 <memcpy>:

// memcpy exists to placate GCC.  Use memmove.
void*
memcpy(void *dst, const void *src, uint n)
{
    80000212:	1141                	addi	sp,sp,-16
    80000214:	e406                	sd	ra,8(sp)
    80000216:	e022                	sd	s0,0(sp)
    80000218:	0800                	addi	s0,sp,16
  return memmove(dst, src, n);
    8000021a:	f99ff0ef          	jal	800001b2 <memmove>
}
    8000021e:	60a2                	ld	ra,8(sp)
    80000220:	6402                	ld	s0,0(sp)
    80000222:	0141                	addi	sp,sp,16
    80000224:	8082                	ret

0000000080000226 <strncmp>:

int
strncmp(const char *p, const char *q, uint n)
{
    80000226:	1141                	addi	sp,sp,-16
    80000228:	e406                	sd	ra,8(sp)
    8000022a:	e022                	sd	s0,0(sp)
    8000022c:	0800                	addi	s0,sp,16
  while(n > 0 && *p && *p == *q)
    8000022e:	ce11                	beqz	a2,8000024a <strncmp+0x24>
    80000230:	00054783          	lbu	a5,0(a0)
    80000234:	cf89                	beqz	a5,8000024e <strncmp+0x28>
    80000236:	0005c703          	lbu	a4,0(a1)
    8000023a:	00f71a63          	bne	a4,a5,8000024e <strncmp+0x28>
    n--, p++, q++;
    8000023e:	367d                	addiw	a2,a2,-1
    80000240:	0505                	addi	a0,a0,1
    80000242:	0585                	addi	a1,a1,1
  while(n > 0 && *p && *p == *q)
    80000244:	f675                	bnez	a2,80000230 <strncmp+0xa>
  if(n == 0)
    return 0;
    80000246:	4501                	li	a0,0
    80000248:	a801                	j	80000258 <strncmp+0x32>
    8000024a:	4501                	li	a0,0
    8000024c:	a031                	j	80000258 <strncmp+0x32>
  return (uchar)*p - (uchar)*q;
    8000024e:	00054503          	lbu	a0,0(a0)
    80000252:	0005c783          	lbu	a5,0(a1)
    80000256:	9d1d                	subw	a0,a0,a5
}
    80000258:	60a2                	ld	ra,8(sp)
    8000025a:	6402                	ld	s0,0(sp)
    8000025c:	0141                	addi	sp,sp,16
    8000025e:	8082                	ret

0000000080000260 <strncpy>:

char*
strncpy(char *s, const char *t, int n)
{
    80000260:	1141                	addi	sp,sp,-16
    80000262:	e406                	sd	ra,8(sp)
    80000264:	e022                	sd	s0,0(sp)
    80000266:	0800                	addi	s0,sp,16
  char *os;

  os = s;
  while(n-- > 0 && (*s++ = *t++) != 0)
    80000268:	87aa                	mv	a5,a0
    8000026a:	86b2                	mv	a3,a2
    8000026c:	367d                	addiw	a2,a2,-1
    8000026e:	02d05563          	blez	a3,80000298 <strncpy+0x38>
    80000272:	0785                	addi	a5,a5,1
    80000274:	0005c703          	lbu	a4,0(a1)
    80000278:	fee78fa3          	sb	a4,-1(a5)
    8000027c:	0585                	addi	a1,a1,1
    8000027e:	f775                	bnez	a4,8000026a <strncpy+0xa>
    ;
  while(n-- > 0)
    80000280:	873e                	mv	a4,a5
    80000282:	00c05b63          	blez	a2,80000298 <strncpy+0x38>
    80000286:	9fb5                	addw	a5,a5,a3
    80000288:	37fd                	addiw	a5,a5,-1
    *s++ = 0;
    8000028a:	0705                	addi	a4,a4,1
    8000028c:	fe070fa3          	sb	zero,-1(a4)
  while(n-- > 0)
    80000290:	40e786bb          	subw	a3,a5,a4
    80000294:	fed04be3          	bgtz	a3,8000028a <strncpy+0x2a>
  return os;
}
    80000298:	60a2                	ld	ra,8(sp)
    8000029a:	6402                	ld	s0,0(sp)
    8000029c:	0141                	addi	sp,sp,16
    8000029e:	8082                	ret

00000000800002a0 <safestrcpy>:

// Like strncpy but guaranteed to NUL-terminate.
char*
safestrcpy(char *s, const char *t, int n)
{
    800002a0:	1141                	addi	sp,sp,-16
    800002a2:	e406                	sd	ra,8(sp)
    800002a4:	e022                	sd	s0,0(sp)
    800002a6:	0800                	addi	s0,sp,16
  char *os;

  os = s;
  if(n <= 0)
    800002a8:	02c05363          	blez	a2,800002ce <safestrcpy+0x2e>
    800002ac:	fff6069b          	addiw	a3,a2,-1
    800002b0:	1682                	slli	a3,a3,0x20
    800002b2:	9281                	srli	a3,a3,0x20
    800002b4:	96ae                	add	a3,a3,a1
    800002b6:	87aa                	mv	a5,a0
    return os;
  while(--n > 0 && (*s++ = *t++) != 0)
    800002b8:	00d58963          	beq	a1,a3,800002ca <safestrcpy+0x2a>
    800002bc:	0585                	addi	a1,a1,1
    800002be:	0785                	addi	a5,a5,1
    800002c0:	fff5c703          	lbu	a4,-1(a1)
    800002c4:	fee78fa3          	sb	a4,-1(a5)
    800002c8:	fb65                	bnez	a4,800002b8 <safestrcpy+0x18>
    ;
  *s = 0;
    800002ca:	00078023          	sb	zero,0(a5)
  return os;
}
    800002ce:	60a2                	ld	ra,8(sp)
    800002d0:	6402                	ld	s0,0(sp)
    800002d2:	0141                	addi	sp,sp,16
    800002d4:	8082                	ret

00000000800002d6 <strlen>:

int
strlen(const char *s)
{
    800002d6:	1141                	addi	sp,sp,-16
    800002d8:	e406                	sd	ra,8(sp)
    800002da:	e022                	sd	s0,0(sp)
    800002dc:	0800                	addi	s0,sp,16
  int n;

  for(n = 0; s[n]; n++)
    800002de:	00054783          	lbu	a5,0(a0)
    800002e2:	cf99                	beqz	a5,80000300 <strlen+0x2a>
    800002e4:	0505                	addi	a0,a0,1
    800002e6:	87aa                	mv	a5,a0
    800002e8:	86be                	mv	a3,a5
    800002ea:	0785                	addi	a5,a5,1
    800002ec:	fff7c703          	lbu	a4,-1(a5)
    800002f0:	ff65                	bnez	a4,800002e8 <strlen+0x12>
    800002f2:	40a6853b          	subw	a0,a3,a0
    800002f6:	2505                	addiw	a0,a0,1
    ;
  return n;
}
    800002f8:	60a2                	ld	ra,8(sp)
    800002fa:	6402                	ld	s0,0(sp)
    800002fc:	0141                	addi	sp,sp,16
    800002fe:	8082                	ret
  for(n = 0; s[n]; n++)
    80000300:	4501                	li	a0,0
    80000302:	bfdd                	j	800002f8 <strlen+0x22>

0000000080000304 <main>:
volatile static int started = 0;

// start() jumps here in supervisor mode on all CPUs.
void
main()
{
    80000304:	1141                	addi	sp,sp,-16
    80000306:	e406                	sd	ra,8(sp)
    80000308:	e022                	sd	s0,0(sp)
    8000030a:	0800                	addi	s0,sp,16
  if(cpuid() == 0){
    8000030c:	21d000ef          	jal	80000d28 <cpuid>
    virtio_disk_init(); // emulated hard disk
    userinit();      // first user process
    __sync_synchronize();
    started = 1;
  } else {
    while(started == 0)
    80000310:	00007717          	auipc	a4,0x7
    80000314:	5e070713          	addi	a4,a4,1504 # 800078f0 <started>
  if(cpuid() == 0){
    80000318:	c51d                	beqz	a0,80000346 <main+0x42>
    while(started == 0)
    8000031a:	431c                	lw	a5,0(a4)
    8000031c:	2781                	sext.w	a5,a5
    8000031e:	dff5                	beqz	a5,8000031a <main+0x16>
      ;
    __sync_synchronize();
    80000320:	0330000f          	fence	rw,rw
    printf("hart %d starting\n", cpuid());
    80000324:	205000ef          	jal	80000d28 <cpuid>
    80000328:	85aa                	mv	a1,a0
    8000032a:	00007517          	auipc	a0,0x7
    8000032e:	d0e50513          	addi	a0,a0,-754 # 80007038 <etext+0x38>
    80000332:	0a4050ef          	jal	800053d6 <printf>
    kvminithart();    // turn on paging
    80000336:	080000ef          	jal	800003b6 <kvminithart>
    trapinithart();   // install kernel trap vector
    8000033a:	502010ef          	jal	8000183c <trapinithart>
    plicinithart();   // ask PLIC for device interrupts
    8000033e:	67a040ef          	jal	800049b8 <plicinithart>
  }

  scheduler();        
    80000342:	64f000ef          	jal	80001190 <scheduler>
    consoleinit();
    80000346:	7c3040ef          	jal	80005308 <consoleinit>
    printfinit();
    8000034a:	396050ef          	jal	800056e0 <printfinit>
    printf("\n");
    8000034e:	00007517          	auipc	a0,0x7
    80000352:	cca50513          	addi	a0,a0,-822 # 80007018 <etext+0x18>
    80000356:	080050ef          	jal	800053d6 <printf>
    printf("xv6 kernel is booting\n");
    8000035a:	00007517          	auipc	a0,0x7
    8000035e:	cc650513          	addi	a0,a0,-826 # 80007020 <etext+0x20>
    80000362:	074050ef          	jal	800053d6 <printf>
    printf("\n");
    80000366:	00007517          	auipc	a0,0x7
    8000036a:	cb250513          	addi	a0,a0,-846 # 80007018 <etext+0x18>
    8000036e:	068050ef          	jal	800053d6 <printf>
    kinit();         // physical page allocator
    80000372:	d59ff0ef          	jal	800000ca <kinit>
    kvminit();       // create kernel page table
    80000376:	2ce000ef          	jal	80000644 <kvminit>
    kvminithart();   // turn on paging
    8000037a:	03c000ef          	jal	800003b6 <kvminithart>
    procinit();      // process table
    8000037e:	0fb000ef          	jal	80000c78 <procinit>
    trapinit();      // trap vectors
    80000382:	496010ef          	jal	80001818 <trapinit>
    trapinithart();  // install kernel trap vector
    80000386:	4b6010ef          	jal	8000183c <trapinithart>
    plicinit();      // set up interrupt controller
    8000038a:	614040ef          	jal	8000499e <plicinit>
    plicinithart();  // ask PLIC for device interrupts
    8000038e:	62a040ef          	jal	800049b8 <plicinithart>
    binit();         // buffer cache
    80000392:	2d9010ef          	jal	80001e6a <binit>
    iinit();         // inode table
    80000396:	152020ef          	jal	800024e8 <iinit>
    fileinit();      // file table
    8000039a:	7af020ef          	jal	80003348 <fileinit>
    virtio_disk_init(); // emulated hard disk
    8000039e:	70a040ef          	jal	80004aa8 <virtio_disk_init>
    userinit();      // first user process
    800003a2:	423000ef          	jal	80000fc4 <userinit>
    __sync_synchronize();
    800003a6:	0330000f          	fence	rw,rw
    started = 1;
    800003aa:	4785                	li	a5,1
    800003ac:	00007717          	auipc	a4,0x7
    800003b0:	54f72223          	sw	a5,1348(a4) # 800078f0 <started>
    800003b4:	b779                	j	80000342 <main+0x3e>

00000000800003b6 <kvminithart>:

// Switch h/w page table register to the kernel's page table,
// and enable paging.
void
kvminithart()
{
    800003b6:	1141                	addi	sp,sp,-16
    800003b8:	e406                	sd	ra,8(sp)
    800003ba:	e022                	sd	s0,0(sp)
    800003bc:	0800                	addi	s0,sp,16
// flush the TLB.
static inline void
sfence_vma()
{
  // the zero, zero means flush all TLB entries.
  asm volatile("sfence.vma zero, zero");
    800003be:	12000073          	sfence.vma
  // wait for any previous writes to the page table memory to finish.
  sfence_vma();

  w_satp(MAKE_SATP(kernel_pagetable));
    800003c2:	00007797          	auipc	a5,0x7
    800003c6:	5367b783          	ld	a5,1334(a5) # 800078f8 <kernel_pagetable>
    800003ca:	83b1                	srli	a5,a5,0xc
    800003cc:	577d                	li	a4,-1
    800003ce:	177e                	slli	a4,a4,0x3f
    800003d0:	8fd9                	or	a5,a5,a4
  asm volatile("csrw satp, %0" : : "r" (x));
    800003d2:	18079073          	csrw	satp,a5
  asm volatile("sfence.vma zero, zero");
    800003d6:	12000073          	sfence.vma

  // flush stale entries from the TLB.
  sfence_vma();
}
    800003da:	60a2                	ld	ra,8(sp)
    800003dc:	6402                	ld	s0,0(sp)
    800003de:	0141                	addi	sp,sp,16
    800003e0:	8082                	ret

00000000800003e2 <walk>:
//   21..29 -- 9 bits of level-1 index.
//   12..20 -- 9 bits of level-0 index.
//    0..11 -- 12 bits of byte offset within the page.
pte_t *
walk(pagetable_t pagetable, uint64 va, int alloc)
{
    800003e2:	7139                	addi	sp,sp,-64
    800003e4:	fc06                	sd	ra,56(sp)
    800003e6:	f822                	sd	s0,48(sp)
    800003e8:	f426                	sd	s1,40(sp)
    800003ea:	f04a                	sd	s2,32(sp)
    800003ec:	ec4e                	sd	s3,24(sp)
    800003ee:	e852                	sd	s4,16(sp)
    800003f0:	e456                	sd	s5,8(sp)
    800003f2:	e05a                	sd	s6,0(sp)
    800003f4:	0080                	addi	s0,sp,64
    800003f6:	84aa                	mv	s1,a0
    800003f8:	89ae                	mv	s3,a1
    800003fa:	8ab2                	mv	s5,a2
  if(va >= MAXVA)
    800003fc:	57fd                	li	a5,-1
    800003fe:	83e9                	srli	a5,a5,0x1a
    80000400:	4a79                	li	s4,30
    panic("walk");

  for(int level = 2; level > 0; level--) {
    80000402:	4b31                	li	s6,12
  if(va >= MAXVA)
    80000404:	04b7e263          	bltu	a5,a1,80000448 <walk+0x66>
    pte_t *pte = &pagetable[PX(level, va)];
    80000408:	0149d933          	srl	s2,s3,s4
    8000040c:	1ff97913          	andi	s2,s2,511
    80000410:	090e                	slli	s2,s2,0x3
    80000412:	9926                	add	s2,s2,s1
    if(*pte & PTE_V) {
    80000414:	00093483          	ld	s1,0(s2)
    80000418:	0014f793          	andi	a5,s1,1
    8000041c:	cf85                	beqz	a5,80000454 <walk+0x72>
      pagetable = (pagetable_t)PTE2PA(*pte);
    8000041e:	80a9                	srli	s1,s1,0xa
    80000420:	04b2                	slli	s1,s1,0xc
  for(int level = 2; level > 0; level--) {
    80000422:	3a5d                	addiw	s4,s4,-9
    80000424:	ff6a12e3          	bne	s4,s6,80000408 <walk+0x26>
        return 0;
      memset(pagetable, 0, PGSIZE);
      *pte = PA2PTE(pagetable) | PTE_V;
    }
  }
  return &pagetable[PX(0, va)];
    80000428:	00c9d513          	srli	a0,s3,0xc
    8000042c:	1ff57513          	andi	a0,a0,511
    80000430:	050e                	slli	a0,a0,0x3
    80000432:	9526                	add	a0,a0,s1
}
    80000434:	70e2                	ld	ra,56(sp)
    80000436:	7442                	ld	s0,48(sp)
    80000438:	74a2                	ld	s1,40(sp)
    8000043a:	7902                	ld	s2,32(sp)
    8000043c:	69e2                	ld	s3,24(sp)
    8000043e:	6a42                	ld	s4,16(sp)
    80000440:	6aa2                	ld	s5,8(sp)
    80000442:	6b02                	ld	s6,0(sp)
    80000444:	6121                	addi	sp,sp,64
    80000446:	8082                	ret
    panic("walk");
    80000448:	00007517          	auipc	a0,0x7
    8000044c:	c0850513          	addi	a0,a0,-1016 # 80007050 <etext+0x50>
    80000450:	256050ef          	jal	800056a6 <panic>
      if(!alloc || (pagetable = (pde_t*)kalloc()) == 0)
    80000454:	020a8263          	beqz	s5,80000478 <walk+0x96>
    80000458:	ca7ff0ef          	jal	800000fe <kalloc>
    8000045c:	84aa                	mv	s1,a0
    8000045e:	d979                	beqz	a0,80000434 <walk+0x52>
      memset(pagetable, 0, PGSIZE);
    80000460:	6605                	lui	a2,0x1
    80000462:	4581                	li	a1,0
    80000464:	cebff0ef          	jal	8000014e <memset>
      *pte = PA2PTE(pagetable) | PTE_V;
    80000468:	00c4d793          	srli	a5,s1,0xc
    8000046c:	07aa                	slli	a5,a5,0xa
    8000046e:	0017e793          	ori	a5,a5,1
    80000472:	00f93023          	sd	a5,0(s2)
    80000476:	b775                	j	80000422 <walk+0x40>
        return 0;
    80000478:	4501                	li	a0,0
    8000047a:	bf6d                	j	80000434 <walk+0x52>

000000008000047c <walkaddr>:
walkaddr(pagetable_t pagetable, uint64 va)
{
  pte_t *pte;
  uint64 pa;

  if(va >= MAXVA)
    8000047c:	57fd                	li	a5,-1
    8000047e:	83e9                	srli	a5,a5,0x1a
    80000480:	00b7f463          	bgeu	a5,a1,80000488 <walkaddr+0xc>
    return 0;
    80000484:	4501                	li	a0,0
    return 0;
  if((*pte & PTE_U) == 0)
    return 0;
  pa = PTE2PA(*pte);
  return pa;
}
    80000486:	8082                	ret
{
    80000488:	1141                	addi	sp,sp,-16
    8000048a:	e406                	sd	ra,8(sp)
    8000048c:	e022                	sd	s0,0(sp)
    8000048e:	0800                	addi	s0,sp,16
  pte = walk(pagetable, va, 0);
    80000490:	4601                	li	a2,0
    80000492:	f51ff0ef          	jal	800003e2 <walk>
  if(pte == 0)
    80000496:	c105                	beqz	a0,800004b6 <walkaddr+0x3a>
  if((*pte & PTE_V) == 0)
    80000498:	611c                	ld	a5,0(a0)
  if((*pte & PTE_U) == 0)
    8000049a:	0117f693          	andi	a3,a5,17
    8000049e:	4745                	li	a4,17
    return 0;
    800004a0:	4501                	li	a0,0
  if((*pte & PTE_U) == 0)
    800004a2:	00e68663          	beq	a3,a4,800004ae <walkaddr+0x32>
}
    800004a6:	60a2                	ld	ra,8(sp)
    800004a8:	6402                	ld	s0,0(sp)
    800004aa:	0141                	addi	sp,sp,16
    800004ac:	8082                	ret
  pa = PTE2PA(*pte);
    800004ae:	83a9                	srli	a5,a5,0xa
    800004b0:	00c79513          	slli	a0,a5,0xc
  return pa;
    800004b4:	bfcd                	j	800004a6 <walkaddr+0x2a>
    return 0;
    800004b6:	4501                	li	a0,0
    800004b8:	b7fd                	j	800004a6 <walkaddr+0x2a>

00000000800004ba <mappages>:
// va and size MUST be page-aligned.
// Returns 0 on success, -1 if walk() couldn't
// allocate a needed page-table page.
int
mappages(pagetable_t pagetable, uint64 va, uint64 size, uint64 pa, int perm)
{
    800004ba:	715d                	addi	sp,sp,-80
    800004bc:	e486                	sd	ra,72(sp)
    800004be:	e0a2                	sd	s0,64(sp)
    800004c0:	fc26                	sd	s1,56(sp)
    800004c2:	f84a                	sd	s2,48(sp)
    800004c4:	f44e                	sd	s3,40(sp)
    800004c6:	f052                	sd	s4,32(sp)
    800004c8:	ec56                	sd	s5,24(sp)
    800004ca:	e85a                	sd	s6,16(sp)
    800004cc:	e45e                	sd	s7,8(sp)
    800004ce:	e062                	sd	s8,0(sp)
    800004d0:	0880                	addi	s0,sp,80
  uint64 a, last;
  pte_t *pte;

  if((va % PGSIZE) != 0)
    800004d2:	03459793          	slli	a5,a1,0x34
    800004d6:	e7b1                	bnez	a5,80000522 <mappages+0x68>
    800004d8:	8aaa                	mv	s5,a0
    800004da:	8b3a                	mv	s6,a4
    panic("mappages: va not aligned");

  if((size % PGSIZE) != 0)
    800004dc:	03461793          	slli	a5,a2,0x34
    800004e0:	e7b9                	bnez	a5,8000052e <mappages+0x74>
    panic("mappages: size not aligned");

  if(size == 0)
    800004e2:	ce21                	beqz	a2,8000053a <mappages+0x80>
    panic("mappages: size");
  
  a = va;
  last = va + size - PGSIZE;
    800004e4:	77fd                	lui	a5,0xfffff
    800004e6:	963e                	add	a2,a2,a5
    800004e8:	00b609b3          	add	s3,a2,a1
  a = va;
    800004ec:	892e                	mv	s2,a1
    800004ee:	40b68a33          	sub	s4,a3,a1
  for(;;){
    if((pte = walk(pagetable, a, 1)) == 0)
    800004f2:	4b85                	li	s7,1
    if(*pte & PTE_V)
      panic("mappages: remap");
    *pte = PA2PTE(pa) | perm | PTE_V;
    if(a == last)
      break;
    a += PGSIZE;
    800004f4:	6c05                	lui	s8,0x1
    800004f6:	014904b3          	add	s1,s2,s4
    if((pte = walk(pagetable, a, 1)) == 0)
    800004fa:	865e                	mv	a2,s7
    800004fc:	85ca                	mv	a1,s2
    800004fe:	8556                	mv	a0,s5
    80000500:	ee3ff0ef          	jal	800003e2 <walk>
    80000504:	c539                	beqz	a0,80000552 <mappages+0x98>
    if(*pte & PTE_V)
    80000506:	611c                	ld	a5,0(a0)
    80000508:	8b85                	andi	a5,a5,1
    8000050a:	ef95                	bnez	a5,80000546 <mappages+0x8c>
    *pte = PA2PTE(pa) | perm | PTE_V;
    8000050c:	80b1                	srli	s1,s1,0xc
    8000050e:	04aa                	slli	s1,s1,0xa
    80000510:	0164e4b3          	or	s1,s1,s6
    80000514:	0014e493          	ori	s1,s1,1
    80000518:	e104                	sd	s1,0(a0)
    if(a == last)
    8000051a:	05390963          	beq	s2,s3,8000056c <mappages+0xb2>
    a += PGSIZE;
    8000051e:	9962                	add	s2,s2,s8
    if((pte = walk(pagetable, a, 1)) == 0)
    80000520:	bfd9                	j	800004f6 <mappages+0x3c>
    panic("mappages: va not aligned");
    80000522:	00007517          	auipc	a0,0x7
    80000526:	b3650513          	addi	a0,a0,-1226 # 80007058 <etext+0x58>
    8000052a:	17c050ef          	jal	800056a6 <panic>
    panic("mappages: size not aligned");
    8000052e:	00007517          	auipc	a0,0x7
    80000532:	b4a50513          	addi	a0,a0,-1206 # 80007078 <etext+0x78>
    80000536:	170050ef          	jal	800056a6 <panic>
    panic("mappages: size");
    8000053a:	00007517          	auipc	a0,0x7
    8000053e:	b5e50513          	addi	a0,a0,-1186 # 80007098 <etext+0x98>
    80000542:	164050ef          	jal	800056a6 <panic>
      panic("mappages: remap");
    80000546:	00007517          	auipc	a0,0x7
    8000054a:	b6250513          	addi	a0,a0,-1182 # 800070a8 <etext+0xa8>
    8000054e:	158050ef          	jal	800056a6 <panic>
      return -1;
    80000552:	557d                	li	a0,-1
    pa += PGSIZE;
  }
  return 0;
}
    80000554:	60a6                	ld	ra,72(sp)
    80000556:	6406                	ld	s0,64(sp)
    80000558:	74e2                	ld	s1,56(sp)
    8000055a:	7942                	ld	s2,48(sp)
    8000055c:	79a2                	ld	s3,40(sp)
    8000055e:	7a02                	ld	s4,32(sp)
    80000560:	6ae2                	ld	s5,24(sp)
    80000562:	6b42                	ld	s6,16(sp)
    80000564:	6ba2                	ld	s7,8(sp)
    80000566:	6c02                	ld	s8,0(sp)
    80000568:	6161                	addi	sp,sp,80
    8000056a:	8082                	ret
  return 0;
    8000056c:	4501                	li	a0,0
    8000056e:	b7dd                	j	80000554 <mappages+0x9a>

0000000080000570 <kvmmap>:
{
    80000570:	1141                	addi	sp,sp,-16
    80000572:	e406                	sd	ra,8(sp)
    80000574:	e022                	sd	s0,0(sp)
    80000576:	0800                	addi	s0,sp,16
    80000578:	87b6                	mv	a5,a3
  if(mappages(kpgtbl, va, sz, pa, perm) != 0)
    8000057a:	86b2                	mv	a3,a2
    8000057c:	863e                	mv	a2,a5
    8000057e:	f3dff0ef          	jal	800004ba <mappages>
    80000582:	e509                	bnez	a0,8000058c <kvmmap+0x1c>
}
    80000584:	60a2                	ld	ra,8(sp)
    80000586:	6402                	ld	s0,0(sp)
    80000588:	0141                	addi	sp,sp,16
    8000058a:	8082                	ret
    panic("kvmmap");
    8000058c:	00007517          	auipc	a0,0x7
    80000590:	b2c50513          	addi	a0,a0,-1236 # 800070b8 <etext+0xb8>
    80000594:	112050ef          	jal	800056a6 <panic>

0000000080000598 <kvmmake>:
{
    80000598:	1101                	addi	sp,sp,-32
    8000059a:	ec06                	sd	ra,24(sp)
    8000059c:	e822                	sd	s0,16(sp)
    8000059e:	e426                	sd	s1,8(sp)
    800005a0:	e04a                	sd	s2,0(sp)
    800005a2:	1000                	addi	s0,sp,32
  kpgtbl = (pagetable_t) kalloc();
    800005a4:	b5bff0ef          	jal	800000fe <kalloc>
    800005a8:	84aa                	mv	s1,a0
  memset(kpgtbl, 0, PGSIZE);
    800005aa:	6605                	lui	a2,0x1
    800005ac:	4581                	li	a1,0
    800005ae:	ba1ff0ef          	jal	8000014e <memset>
  kvmmap(kpgtbl, UART0, UART0, PGSIZE, PTE_R | PTE_W);
    800005b2:	4719                	li	a4,6
    800005b4:	6685                	lui	a3,0x1
    800005b6:	10000637          	lui	a2,0x10000
    800005ba:	85b2                	mv	a1,a2
    800005bc:	8526                	mv	a0,s1
    800005be:	fb3ff0ef          	jal	80000570 <kvmmap>
  kvmmap(kpgtbl, VIRTIO0, VIRTIO0, PGSIZE, PTE_R | PTE_W);
    800005c2:	4719                	li	a4,6
    800005c4:	6685                	lui	a3,0x1
    800005c6:	10001637          	lui	a2,0x10001
    800005ca:	85b2                	mv	a1,a2
    800005cc:	8526                	mv	a0,s1
    800005ce:	fa3ff0ef          	jal	80000570 <kvmmap>
  kvmmap(kpgtbl, PLIC, PLIC, 0x4000000, PTE_R | PTE_W);
    800005d2:	4719                	li	a4,6
    800005d4:	040006b7          	lui	a3,0x4000
    800005d8:	0c000637          	lui	a2,0xc000
    800005dc:	85b2                	mv	a1,a2
    800005de:	8526                	mv	a0,s1
    800005e0:	f91ff0ef          	jal	80000570 <kvmmap>
  kvmmap(kpgtbl, KERNBASE, KERNBASE, (uint64)etext-KERNBASE, PTE_R | PTE_X);
    800005e4:	00007917          	auipc	s2,0x7
    800005e8:	a1c90913          	addi	s2,s2,-1508 # 80007000 <etext>
    800005ec:	4729                	li	a4,10
    800005ee:	80007697          	auipc	a3,0x80007
    800005f2:	a1268693          	addi	a3,a3,-1518 # 7000 <_entry-0x7fff9000>
    800005f6:	4605                	li	a2,1
    800005f8:	067e                	slli	a2,a2,0x1f
    800005fa:	85b2                	mv	a1,a2
    800005fc:	8526                	mv	a0,s1
    800005fe:	f73ff0ef          	jal	80000570 <kvmmap>
  kvmmap(kpgtbl, (uint64)etext, (uint64)etext, PHYSTOP-(uint64)etext, PTE_R | PTE_W);
    80000602:	4719                	li	a4,6
    80000604:	46c5                	li	a3,17
    80000606:	06ee                	slli	a3,a3,0x1b
    80000608:	412686b3          	sub	a3,a3,s2
    8000060c:	864a                	mv	a2,s2
    8000060e:	85ca                	mv	a1,s2
    80000610:	8526                	mv	a0,s1
    80000612:	f5fff0ef          	jal	80000570 <kvmmap>
  kvmmap(kpgtbl, TRAMPOLINE, (uint64)trampoline, PGSIZE, PTE_R | PTE_X);
    80000616:	4729                	li	a4,10
    80000618:	6685                	lui	a3,0x1
    8000061a:	00006617          	auipc	a2,0x6
    8000061e:	9e660613          	addi	a2,a2,-1562 # 80006000 <_trampoline>
    80000622:	040005b7          	lui	a1,0x4000
    80000626:	15fd                	addi	a1,a1,-1 # 3ffffff <_entry-0x7c000001>
    80000628:	05b2                	slli	a1,a1,0xc
    8000062a:	8526                	mv	a0,s1
    8000062c:	f45ff0ef          	jal	80000570 <kvmmap>
  proc_mapstacks(kpgtbl);
    80000630:	8526                	mv	a0,s1
    80000632:	5a8000ef          	jal	80000bda <proc_mapstacks>
}
    80000636:	8526                	mv	a0,s1
    80000638:	60e2                	ld	ra,24(sp)
    8000063a:	6442                	ld	s0,16(sp)
    8000063c:	64a2                	ld	s1,8(sp)
    8000063e:	6902                	ld	s2,0(sp)
    80000640:	6105                	addi	sp,sp,32
    80000642:	8082                	ret

0000000080000644 <kvminit>:
{
    80000644:	1141                	addi	sp,sp,-16
    80000646:	e406                	sd	ra,8(sp)
    80000648:	e022                	sd	s0,0(sp)
    8000064a:	0800                	addi	s0,sp,16
  kernel_pagetable = kvmmake();
    8000064c:	f4dff0ef          	jal	80000598 <kvmmake>
    80000650:	00007797          	auipc	a5,0x7
    80000654:	2aa7b423          	sd	a0,680(a5) # 800078f8 <kernel_pagetable>
}
    80000658:	60a2                	ld	ra,8(sp)
    8000065a:	6402                	ld	s0,0(sp)
    8000065c:	0141                	addi	sp,sp,16
    8000065e:	8082                	ret

0000000080000660 <uvmunmap>:
// Remove npages of mappings starting from va. va must be
// page-aligned. The mappings must exist.
// Optionally free the physical memory.
void
uvmunmap(pagetable_t pagetable, uint64 va, uint64 npages, int do_free)
{
    80000660:	715d                	addi	sp,sp,-80
    80000662:	e486                	sd	ra,72(sp)
    80000664:	e0a2                	sd	s0,64(sp)
    80000666:	0880                	addi	s0,sp,80
  uint64 a;
  pte_t *pte;

  if((va % PGSIZE) != 0)
    80000668:	03459793          	slli	a5,a1,0x34
    8000066c:	e39d                	bnez	a5,80000692 <uvmunmap+0x32>
    8000066e:	f84a                	sd	s2,48(sp)
    80000670:	f44e                	sd	s3,40(sp)
    80000672:	f052                	sd	s4,32(sp)
    80000674:	ec56                	sd	s5,24(sp)
    80000676:	e85a                	sd	s6,16(sp)
    80000678:	e45e                	sd	s7,8(sp)
    8000067a:	8a2a                	mv	s4,a0
    8000067c:	892e                	mv	s2,a1
    8000067e:	8ab6                	mv	s5,a3
    panic("uvmunmap: not aligned");

  for(a = va; a < va + npages*PGSIZE; a += PGSIZE){
    80000680:	0632                	slli	a2,a2,0xc
    80000682:	00b609b3          	add	s3,a2,a1
    if((pte = walk(pagetable, a, 0)) == 0)
      panic("uvmunmap: walk");
    if((*pte & PTE_V) == 0)
      panic("uvmunmap: not mapped");
    if(PTE_FLAGS(*pte) == PTE_V)
    80000686:	4b85                	li	s7,1
  for(a = va; a < va + npages*PGSIZE; a += PGSIZE){
    80000688:	6b05                	lui	s6,0x1
    8000068a:	0735ff63          	bgeu	a1,s3,80000708 <uvmunmap+0xa8>
    8000068e:	fc26                	sd	s1,56(sp)
    80000690:	a0a9                	j	800006da <uvmunmap+0x7a>
    80000692:	fc26                	sd	s1,56(sp)
    80000694:	f84a                	sd	s2,48(sp)
    80000696:	f44e                	sd	s3,40(sp)
    80000698:	f052                	sd	s4,32(sp)
    8000069a:	ec56                	sd	s5,24(sp)
    8000069c:	e85a                	sd	s6,16(sp)
    8000069e:	e45e                	sd	s7,8(sp)
    panic("uvmunmap: not aligned");
    800006a0:	00007517          	auipc	a0,0x7
    800006a4:	a2050513          	addi	a0,a0,-1504 # 800070c0 <etext+0xc0>
    800006a8:	7ff040ef          	jal	800056a6 <panic>
      panic("uvmunmap: walk");
    800006ac:	00007517          	auipc	a0,0x7
    800006b0:	a2c50513          	addi	a0,a0,-1492 # 800070d8 <etext+0xd8>
    800006b4:	7f3040ef          	jal	800056a6 <panic>
      panic("uvmunmap: not mapped");
    800006b8:	00007517          	auipc	a0,0x7
    800006bc:	a3050513          	addi	a0,a0,-1488 # 800070e8 <etext+0xe8>
    800006c0:	7e7040ef          	jal	800056a6 <panic>
      panic("uvmunmap: not a leaf");
    800006c4:	00007517          	auipc	a0,0x7
    800006c8:	a3c50513          	addi	a0,a0,-1476 # 80007100 <etext+0x100>
    800006cc:	7db040ef          	jal	800056a6 <panic>
    if(do_free){
      uint64 pa = PTE2PA(*pte);
      kfree((void*)pa);
    }
    *pte = 0;
    800006d0:	0004b023          	sd	zero,0(s1)
  for(a = va; a < va + npages*PGSIZE; a += PGSIZE){
    800006d4:	995a                	add	s2,s2,s6
    800006d6:	03397863          	bgeu	s2,s3,80000706 <uvmunmap+0xa6>
    if((pte = walk(pagetable, a, 0)) == 0)
    800006da:	4601                	li	a2,0
    800006dc:	85ca                	mv	a1,s2
    800006de:	8552                	mv	a0,s4
    800006e0:	d03ff0ef          	jal	800003e2 <walk>
    800006e4:	84aa                	mv	s1,a0
    800006e6:	d179                	beqz	a0,800006ac <uvmunmap+0x4c>
    if((*pte & PTE_V) == 0)
    800006e8:	6108                	ld	a0,0(a0)
    800006ea:	00157793          	andi	a5,a0,1
    800006ee:	d7e9                	beqz	a5,800006b8 <uvmunmap+0x58>
    if(PTE_FLAGS(*pte) == PTE_V)
    800006f0:	3ff57793          	andi	a5,a0,1023
    800006f4:	fd7788e3          	beq	a5,s7,800006c4 <uvmunmap+0x64>
    if(do_free){
    800006f8:	fc0a8ce3          	beqz	s5,800006d0 <uvmunmap+0x70>
      uint64 pa = PTE2PA(*pte);
    800006fc:	8129                	srli	a0,a0,0xa
      kfree((void*)pa);
    800006fe:	0532                	slli	a0,a0,0xc
    80000700:	91dff0ef          	jal	8000001c <kfree>
    80000704:	b7f1                	j	800006d0 <uvmunmap+0x70>
    80000706:	74e2                	ld	s1,56(sp)
    80000708:	7942                	ld	s2,48(sp)
    8000070a:	79a2                	ld	s3,40(sp)
    8000070c:	7a02                	ld	s4,32(sp)
    8000070e:	6ae2                	ld	s5,24(sp)
    80000710:	6b42                	ld	s6,16(sp)
    80000712:	6ba2                	ld	s7,8(sp)
  }
}
    80000714:	60a6                	ld	ra,72(sp)
    80000716:	6406                	ld	s0,64(sp)
    80000718:	6161                	addi	sp,sp,80
    8000071a:	8082                	ret

000000008000071c <uvmcreate>:

// create an empty user page table.
// returns 0 if out of memory.
pagetable_t
uvmcreate()
{
    8000071c:	1101                	addi	sp,sp,-32
    8000071e:	ec06                	sd	ra,24(sp)
    80000720:	e822                	sd	s0,16(sp)
    80000722:	e426                	sd	s1,8(sp)
    80000724:	1000                	addi	s0,sp,32
  pagetable_t pagetable;
  pagetable = (pagetable_t) kalloc();
    80000726:	9d9ff0ef          	jal	800000fe <kalloc>
    8000072a:	84aa                	mv	s1,a0
  if(pagetable == 0)
    8000072c:	c509                	beqz	a0,80000736 <uvmcreate+0x1a>
    return 0;
  memset(pagetable, 0, PGSIZE);
    8000072e:	6605                	lui	a2,0x1
    80000730:	4581                	li	a1,0
    80000732:	a1dff0ef          	jal	8000014e <memset>
  return pagetable;
}
    80000736:	8526                	mv	a0,s1
    80000738:	60e2                	ld	ra,24(sp)
    8000073a:	6442                	ld	s0,16(sp)
    8000073c:	64a2                	ld	s1,8(sp)
    8000073e:	6105                	addi	sp,sp,32
    80000740:	8082                	ret

0000000080000742 <uvmfirst>:
// Load the user initcode into address 0 of pagetable,
// for the very first process.
// sz must be less than a page.
void
uvmfirst(pagetable_t pagetable, uchar *src, uint sz)
{
    80000742:	7179                	addi	sp,sp,-48
    80000744:	f406                	sd	ra,40(sp)
    80000746:	f022                	sd	s0,32(sp)
    80000748:	ec26                	sd	s1,24(sp)
    8000074a:	e84a                	sd	s2,16(sp)
    8000074c:	e44e                	sd	s3,8(sp)
    8000074e:	e052                	sd	s4,0(sp)
    80000750:	1800                	addi	s0,sp,48
  char *mem;

  if(sz >= PGSIZE)
    80000752:	6785                	lui	a5,0x1
    80000754:	04f67063          	bgeu	a2,a5,80000794 <uvmfirst+0x52>
    80000758:	8a2a                	mv	s4,a0
    8000075a:	89ae                	mv	s3,a1
    8000075c:	84b2                	mv	s1,a2
    panic("uvmfirst: more than a page");
  mem = kalloc();
    8000075e:	9a1ff0ef          	jal	800000fe <kalloc>
    80000762:	892a                	mv	s2,a0
  memset(mem, 0, PGSIZE);
    80000764:	6605                	lui	a2,0x1
    80000766:	4581                	li	a1,0
    80000768:	9e7ff0ef          	jal	8000014e <memset>
  mappages(pagetable, 0, PGSIZE, (uint64)mem, PTE_W|PTE_R|PTE_X|PTE_U);
    8000076c:	4779                	li	a4,30
    8000076e:	86ca                	mv	a3,s2
    80000770:	6605                	lui	a2,0x1
    80000772:	4581                	li	a1,0
    80000774:	8552                	mv	a0,s4
    80000776:	d45ff0ef          	jal	800004ba <mappages>
  memmove(mem, src, sz);
    8000077a:	8626                	mv	a2,s1
    8000077c:	85ce                	mv	a1,s3
    8000077e:	854a                	mv	a0,s2
    80000780:	a33ff0ef          	jal	800001b2 <memmove>
}
    80000784:	70a2                	ld	ra,40(sp)
    80000786:	7402                	ld	s0,32(sp)
    80000788:	64e2                	ld	s1,24(sp)
    8000078a:	6942                	ld	s2,16(sp)
    8000078c:	69a2                	ld	s3,8(sp)
    8000078e:	6a02                	ld	s4,0(sp)
    80000790:	6145                	addi	sp,sp,48
    80000792:	8082                	ret
    panic("uvmfirst: more than a page");
    80000794:	00007517          	auipc	a0,0x7
    80000798:	98450513          	addi	a0,a0,-1660 # 80007118 <etext+0x118>
    8000079c:	70b040ef          	jal	800056a6 <panic>

00000000800007a0 <uvmdealloc>:
// newsz.  oldsz and newsz need not be page-aligned, nor does newsz
// need to be less than oldsz.  oldsz can be larger than the actual
// process size.  Returns the new process size.
uint64
uvmdealloc(pagetable_t pagetable, uint64 oldsz, uint64 newsz)
{
    800007a0:	1101                	addi	sp,sp,-32
    800007a2:	ec06                	sd	ra,24(sp)
    800007a4:	e822                	sd	s0,16(sp)
    800007a6:	e426                	sd	s1,8(sp)
    800007a8:	1000                	addi	s0,sp,32
  if(newsz >= oldsz)
    return oldsz;
    800007aa:	84ae                	mv	s1,a1
  if(newsz >= oldsz)
    800007ac:	00b67d63          	bgeu	a2,a1,800007c6 <uvmdealloc+0x26>
    800007b0:	84b2                	mv	s1,a2

  if(PGROUNDUP(newsz) < PGROUNDUP(oldsz)){
    800007b2:	6785                	lui	a5,0x1
    800007b4:	17fd                	addi	a5,a5,-1 # fff <_entry-0x7ffff001>
    800007b6:	00f60733          	add	a4,a2,a5
    800007ba:	76fd                	lui	a3,0xfffff
    800007bc:	8f75                	and	a4,a4,a3
    800007be:	97ae                	add	a5,a5,a1
    800007c0:	8ff5                	and	a5,a5,a3
    800007c2:	00f76863          	bltu	a4,a5,800007d2 <uvmdealloc+0x32>
    int npages = (PGROUNDUP(oldsz) - PGROUNDUP(newsz)) / PGSIZE;
    uvmunmap(pagetable, PGROUNDUP(newsz), npages, 1);
  }

  return newsz;
}
    800007c6:	8526                	mv	a0,s1
    800007c8:	60e2                	ld	ra,24(sp)
    800007ca:	6442                	ld	s0,16(sp)
    800007cc:	64a2                	ld	s1,8(sp)
    800007ce:	6105                	addi	sp,sp,32
    800007d0:	8082                	ret
    int npages = (PGROUNDUP(oldsz) - PGROUNDUP(newsz)) / PGSIZE;
    800007d2:	8f99                	sub	a5,a5,a4
    800007d4:	83b1                	srli	a5,a5,0xc
    uvmunmap(pagetable, PGROUNDUP(newsz), npages, 1);
    800007d6:	4685                	li	a3,1
    800007d8:	0007861b          	sext.w	a2,a5
    800007dc:	85ba                	mv	a1,a4
    800007de:	e83ff0ef          	jal	80000660 <uvmunmap>
    800007e2:	b7d5                	j	800007c6 <uvmdealloc+0x26>

00000000800007e4 <uvmalloc>:
  if(newsz < oldsz)
    800007e4:	0ab66363          	bltu	a2,a1,8000088a <uvmalloc+0xa6>
{
    800007e8:	715d                	addi	sp,sp,-80
    800007ea:	e486                	sd	ra,72(sp)
    800007ec:	e0a2                	sd	s0,64(sp)
    800007ee:	f052                	sd	s4,32(sp)
    800007f0:	ec56                	sd	s5,24(sp)
    800007f2:	e85a                	sd	s6,16(sp)
    800007f4:	0880                	addi	s0,sp,80
    800007f6:	8b2a                	mv	s6,a0
    800007f8:	8ab2                	mv	s5,a2
  oldsz = PGROUNDUP(oldsz);
    800007fa:	6785                	lui	a5,0x1
    800007fc:	17fd                	addi	a5,a5,-1 # fff <_entry-0x7ffff001>
    800007fe:	95be                	add	a1,a1,a5
    80000800:	77fd                	lui	a5,0xfffff
    80000802:	00f5fa33          	and	s4,a1,a5
  for(a = oldsz; a < newsz; a += PGSIZE){
    80000806:	08ca7463          	bgeu	s4,a2,8000088e <uvmalloc+0xaa>
    8000080a:	fc26                	sd	s1,56(sp)
    8000080c:	f84a                	sd	s2,48(sp)
    8000080e:	f44e                	sd	s3,40(sp)
    80000810:	e45e                	sd	s7,8(sp)
    80000812:	8952                	mv	s2,s4
    memset(mem, 0, PGSIZE);
    80000814:	6985                	lui	s3,0x1
    if(mappages(pagetable, a, PGSIZE, (uint64)mem, PTE_R|PTE_U|xperm) != 0){
    80000816:	0126eb93          	ori	s7,a3,18
    mem = kalloc();
    8000081a:	8e5ff0ef          	jal	800000fe <kalloc>
    8000081e:	84aa                	mv	s1,a0
    if(mem == 0){
    80000820:	c515                	beqz	a0,8000084c <uvmalloc+0x68>
    memset(mem, 0, PGSIZE);
    80000822:	864e                	mv	a2,s3
    80000824:	4581                	li	a1,0
    80000826:	929ff0ef          	jal	8000014e <memset>
    if(mappages(pagetable, a, PGSIZE, (uint64)mem, PTE_R|PTE_U|xperm) != 0){
    8000082a:	875e                	mv	a4,s7
    8000082c:	86a6                	mv	a3,s1
    8000082e:	864e                	mv	a2,s3
    80000830:	85ca                	mv	a1,s2
    80000832:	855a                	mv	a0,s6
    80000834:	c87ff0ef          	jal	800004ba <mappages>
    80000838:	e91d                	bnez	a0,8000086e <uvmalloc+0x8a>
  for(a = oldsz; a < newsz; a += PGSIZE){
    8000083a:	994e                	add	s2,s2,s3
    8000083c:	fd596fe3          	bltu	s2,s5,8000081a <uvmalloc+0x36>
  return newsz;
    80000840:	8556                	mv	a0,s5
    80000842:	74e2                	ld	s1,56(sp)
    80000844:	7942                	ld	s2,48(sp)
    80000846:	79a2                	ld	s3,40(sp)
    80000848:	6ba2                	ld	s7,8(sp)
    8000084a:	a819                	j	80000860 <uvmalloc+0x7c>
      uvmdealloc(pagetable, a, oldsz);
    8000084c:	8652                	mv	a2,s4
    8000084e:	85ca                	mv	a1,s2
    80000850:	855a                	mv	a0,s6
    80000852:	f4fff0ef          	jal	800007a0 <uvmdealloc>
      return 0;
    80000856:	4501                	li	a0,0
    80000858:	74e2                	ld	s1,56(sp)
    8000085a:	7942                	ld	s2,48(sp)
    8000085c:	79a2                	ld	s3,40(sp)
    8000085e:	6ba2                	ld	s7,8(sp)
}
    80000860:	60a6                	ld	ra,72(sp)
    80000862:	6406                	ld	s0,64(sp)
    80000864:	7a02                	ld	s4,32(sp)
    80000866:	6ae2                	ld	s5,24(sp)
    80000868:	6b42                	ld	s6,16(sp)
    8000086a:	6161                	addi	sp,sp,80
    8000086c:	8082                	ret
      kfree(mem);
    8000086e:	8526                	mv	a0,s1
    80000870:	facff0ef          	jal	8000001c <kfree>
      uvmdealloc(pagetable, a, oldsz);
    80000874:	8652                	mv	a2,s4
    80000876:	85ca                	mv	a1,s2
    80000878:	855a                	mv	a0,s6
    8000087a:	f27ff0ef          	jal	800007a0 <uvmdealloc>
      return 0;
    8000087e:	4501                	li	a0,0
    80000880:	74e2                	ld	s1,56(sp)
    80000882:	7942                	ld	s2,48(sp)
    80000884:	79a2                	ld	s3,40(sp)
    80000886:	6ba2                	ld	s7,8(sp)
    80000888:	bfe1                	j	80000860 <uvmalloc+0x7c>
    return oldsz;
    8000088a:	852e                	mv	a0,a1
}
    8000088c:	8082                	ret
  return newsz;
    8000088e:	8532                	mv	a0,a2
    80000890:	bfc1                	j	80000860 <uvmalloc+0x7c>

0000000080000892 <freewalk>:

// Recursively free page-table pages.
// All leaf mappings must already have been removed.
void
freewalk(pagetable_t pagetable)
{
    80000892:	7179                	addi	sp,sp,-48
    80000894:	f406                	sd	ra,40(sp)
    80000896:	f022                	sd	s0,32(sp)
    80000898:	ec26                	sd	s1,24(sp)
    8000089a:	e84a                	sd	s2,16(sp)
    8000089c:	e44e                	sd	s3,8(sp)
    8000089e:	e052                	sd	s4,0(sp)
    800008a0:	1800                	addi	s0,sp,48
    800008a2:	8a2a                	mv	s4,a0
  // there are 2^9 = 512 PTEs in a page table.
  for(int i = 0; i < 512; i++){
    800008a4:	84aa                	mv	s1,a0
    800008a6:	6905                	lui	s2,0x1
    800008a8:	992a                	add	s2,s2,a0
    pte_t pte = pagetable[i];
    if((pte & PTE_V) && (pte & (PTE_R|PTE_W|PTE_X)) == 0){
    800008aa:	4985                	li	s3,1
    800008ac:	a819                	j	800008c2 <freewalk+0x30>
      // this PTE points to a lower-level page table.
      uint64 child = PTE2PA(pte);
    800008ae:	83a9                	srli	a5,a5,0xa
      freewalk((pagetable_t)child);
    800008b0:	00c79513          	slli	a0,a5,0xc
    800008b4:	fdfff0ef          	jal	80000892 <freewalk>
      pagetable[i] = 0;
    800008b8:	0004b023          	sd	zero,0(s1)
  for(int i = 0; i < 512; i++){
    800008bc:	04a1                	addi	s1,s1,8
    800008be:	01248f63          	beq	s1,s2,800008dc <freewalk+0x4a>
    pte_t pte = pagetable[i];
    800008c2:	609c                	ld	a5,0(s1)
    if((pte & PTE_V) && (pte & (PTE_R|PTE_W|PTE_X)) == 0){
    800008c4:	00f7f713          	andi	a4,a5,15
    800008c8:	ff3703e3          	beq	a4,s3,800008ae <freewalk+0x1c>
    } else if(pte & PTE_V){
    800008cc:	8b85                	andi	a5,a5,1
    800008ce:	d7fd                	beqz	a5,800008bc <freewalk+0x2a>
      panic("freewalk: leaf");
    800008d0:	00007517          	auipc	a0,0x7
    800008d4:	86850513          	addi	a0,a0,-1944 # 80007138 <etext+0x138>
    800008d8:	5cf040ef          	jal	800056a6 <panic>
    }
  }
  kfree((void*)pagetable);
    800008dc:	8552                	mv	a0,s4
    800008de:	f3eff0ef          	jal	8000001c <kfree>
}
    800008e2:	70a2                	ld	ra,40(sp)
    800008e4:	7402                	ld	s0,32(sp)
    800008e6:	64e2                	ld	s1,24(sp)
    800008e8:	6942                	ld	s2,16(sp)
    800008ea:	69a2                	ld	s3,8(sp)
    800008ec:	6a02                	ld	s4,0(sp)
    800008ee:	6145                	addi	sp,sp,48
    800008f0:	8082                	ret

00000000800008f2 <uvmfree>:

// Free user memory pages,
// then free page-table pages.
void
uvmfree(pagetable_t pagetable, uint64 sz)
{
    800008f2:	1101                	addi	sp,sp,-32
    800008f4:	ec06                	sd	ra,24(sp)
    800008f6:	e822                	sd	s0,16(sp)
    800008f8:	e426                	sd	s1,8(sp)
    800008fa:	1000                	addi	s0,sp,32
    800008fc:	84aa                	mv	s1,a0
  if(sz > 0)
    800008fe:	e989                	bnez	a1,80000910 <uvmfree+0x1e>
    uvmunmap(pagetable, 0, PGROUNDUP(sz)/PGSIZE, 1);
  freewalk(pagetable);
    80000900:	8526                	mv	a0,s1
    80000902:	f91ff0ef          	jal	80000892 <freewalk>
}
    80000906:	60e2                	ld	ra,24(sp)
    80000908:	6442                	ld	s0,16(sp)
    8000090a:	64a2                	ld	s1,8(sp)
    8000090c:	6105                	addi	sp,sp,32
    8000090e:	8082                	ret
    uvmunmap(pagetable, 0, PGROUNDUP(sz)/PGSIZE, 1);
    80000910:	6785                	lui	a5,0x1
    80000912:	17fd                	addi	a5,a5,-1 # fff <_entry-0x7ffff001>
    80000914:	95be                	add	a1,a1,a5
    80000916:	4685                	li	a3,1
    80000918:	00c5d613          	srli	a2,a1,0xc
    8000091c:	4581                	li	a1,0
    8000091e:	d43ff0ef          	jal	80000660 <uvmunmap>
    80000922:	bff9                	j	80000900 <uvmfree+0xe>

0000000080000924 <uvmcopy>:
  pte_t *pte;
  uint64 pa, i;
  uint flags;
  char *mem;

  for(i = 0; i < sz; i += PGSIZE){
    80000924:	ca4d                	beqz	a2,800009d6 <uvmcopy+0xb2>
{
    80000926:	715d                	addi	sp,sp,-80
    80000928:	e486                	sd	ra,72(sp)
    8000092a:	e0a2                	sd	s0,64(sp)
    8000092c:	fc26                	sd	s1,56(sp)
    8000092e:	f84a                	sd	s2,48(sp)
    80000930:	f44e                	sd	s3,40(sp)
    80000932:	f052                	sd	s4,32(sp)
    80000934:	ec56                	sd	s5,24(sp)
    80000936:	e85a                	sd	s6,16(sp)
    80000938:	e45e                	sd	s7,8(sp)
    8000093a:	e062                	sd	s8,0(sp)
    8000093c:	0880                	addi	s0,sp,80
    8000093e:	8baa                	mv	s7,a0
    80000940:	8b2e                	mv	s6,a1
    80000942:	8ab2                	mv	s5,a2
  for(i = 0; i < sz; i += PGSIZE){
    80000944:	4981                	li	s3,0
      panic("uvmcopy: page not present");
    pa = PTE2PA(*pte);
    flags = PTE_FLAGS(*pte);
    if((mem = kalloc()) == 0)
      goto err;
    memmove(mem, (char*)pa, PGSIZE);
    80000946:	6a05                	lui	s4,0x1
    if((pte = walk(old, i, 0)) == 0)
    80000948:	4601                	li	a2,0
    8000094a:	85ce                	mv	a1,s3
    8000094c:	855e                	mv	a0,s7
    8000094e:	a95ff0ef          	jal	800003e2 <walk>
    80000952:	cd1d                	beqz	a0,80000990 <uvmcopy+0x6c>
    if((*pte & PTE_V) == 0)
    80000954:	6118                	ld	a4,0(a0)
    80000956:	00177793          	andi	a5,a4,1
    8000095a:	c3a9                	beqz	a5,8000099c <uvmcopy+0x78>
    pa = PTE2PA(*pte);
    8000095c:	00a75593          	srli	a1,a4,0xa
    80000960:	00c59c13          	slli	s8,a1,0xc
    flags = PTE_FLAGS(*pte);
    80000964:	3ff77493          	andi	s1,a4,1023
    if((mem = kalloc()) == 0)
    80000968:	f96ff0ef          	jal	800000fe <kalloc>
    8000096c:	892a                	mv	s2,a0
    8000096e:	c121                	beqz	a0,800009ae <uvmcopy+0x8a>
    memmove(mem, (char*)pa, PGSIZE);
    80000970:	8652                	mv	a2,s4
    80000972:	85e2                	mv	a1,s8
    80000974:	83fff0ef          	jal	800001b2 <memmove>
    if(mappages(new, i, PGSIZE, (uint64)mem, flags) != 0){
    80000978:	8726                	mv	a4,s1
    8000097a:	86ca                	mv	a3,s2
    8000097c:	8652                	mv	a2,s4
    8000097e:	85ce                	mv	a1,s3
    80000980:	855a                	mv	a0,s6
    80000982:	b39ff0ef          	jal	800004ba <mappages>
    80000986:	e10d                	bnez	a0,800009a8 <uvmcopy+0x84>
  for(i = 0; i < sz; i += PGSIZE){
    80000988:	99d2                	add	s3,s3,s4
    8000098a:	fb59efe3          	bltu	s3,s5,80000948 <uvmcopy+0x24>
    8000098e:	a805                	j	800009be <uvmcopy+0x9a>
      panic("uvmcopy: pte should exist");
    80000990:	00006517          	auipc	a0,0x6
    80000994:	7b850513          	addi	a0,a0,1976 # 80007148 <etext+0x148>
    80000998:	50f040ef          	jal	800056a6 <panic>
      panic("uvmcopy: page not present");
    8000099c:	00006517          	auipc	a0,0x6
    800009a0:	7cc50513          	addi	a0,a0,1996 # 80007168 <etext+0x168>
    800009a4:	503040ef          	jal	800056a6 <panic>
      kfree(mem);
    800009a8:	854a                	mv	a0,s2
    800009aa:	e72ff0ef          	jal	8000001c <kfree>
    }
  }
  return 0;

 err:
  uvmunmap(new, 0, i / PGSIZE, 1);
    800009ae:	4685                	li	a3,1
    800009b0:	00c9d613          	srli	a2,s3,0xc
    800009b4:	4581                	li	a1,0
    800009b6:	855a                	mv	a0,s6
    800009b8:	ca9ff0ef          	jal	80000660 <uvmunmap>
  return -1;
    800009bc:	557d                	li	a0,-1
}
    800009be:	60a6                	ld	ra,72(sp)
    800009c0:	6406                	ld	s0,64(sp)
    800009c2:	74e2                	ld	s1,56(sp)
    800009c4:	7942                	ld	s2,48(sp)
    800009c6:	79a2                	ld	s3,40(sp)
    800009c8:	7a02                	ld	s4,32(sp)
    800009ca:	6ae2                	ld	s5,24(sp)
    800009cc:	6b42                	ld	s6,16(sp)
    800009ce:	6ba2                	ld	s7,8(sp)
    800009d0:	6c02                	ld	s8,0(sp)
    800009d2:	6161                	addi	sp,sp,80
    800009d4:	8082                	ret
  return 0;
    800009d6:	4501                	li	a0,0
}
    800009d8:	8082                	ret

00000000800009da <uvmclear>:

// mark a PTE invalid for user access.
// used by exec for the user stack guard page.
void
uvmclear(pagetable_t pagetable, uint64 va)
{
    800009da:	1141                	addi	sp,sp,-16
    800009dc:	e406                	sd	ra,8(sp)
    800009de:	e022                	sd	s0,0(sp)
    800009e0:	0800                	addi	s0,sp,16
  pte_t *pte;
  
  pte = walk(pagetable, va, 0);
    800009e2:	4601                	li	a2,0
    800009e4:	9ffff0ef          	jal	800003e2 <walk>
  if(pte == 0)
    800009e8:	c901                	beqz	a0,800009f8 <uvmclear+0x1e>
    panic("uvmclear");
  *pte &= ~PTE_U;
    800009ea:	611c                	ld	a5,0(a0)
    800009ec:	9bbd                	andi	a5,a5,-17
    800009ee:	e11c                	sd	a5,0(a0)
}
    800009f0:	60a2                	ld	ra,8(sp)
    800009f2:	6402                	ld	s0,0(sp)
    800009f4:	0141                	addi	sp,sp,16
    800009f6:	8082                	ret
    panic("uvmclear");
    800009f8:	00006517          	auipc	a0,0x6
    800009fc:	79050513          	addi	a0,a0,1936 # 80007188 <etext+0x188>
    80000a00:	4a7040ef          	jal	800056a6 <panic>

0000000080000a04 <copyout>:
copyout(pagetable_t pagetable, uint64 dstva, char *src, uint64 len)
{
  uint64 n, va0, pa0;
  pte_t *pte;

  while(len > 0){
    80000a04:	c2d9                	beqz	a3,80000a8a <copyout+0x86>
{
    80000a06:	711d                	addi	sp,sp,-96
    80000a08:	ec86                	sd	ra,88(sp)
    80000a0a:	e8a2                	sd	s0,80(sp)
    80000a0c:	e4a6                	sd	s1,72(sp)
    80000a0e:	e0ca                	sd	s2,64(sp)
    80000a10:	fc4e                	sd	s3,56(sp)
    80000a12:	f852                	sd	s4,48(sp)
    80000a14:	f456                	sd	s5,40(sp)
    80000a16:	f05a                	sd	s6,32(sp)
    80000a18:	ec5e                	sd	s7,24(sp)
    80000a1a:	e862                	sd	s8,16(sp)
    80000a1c:	e466                	sd	s9,8(sp)
    80000a1e:	e06a                	sd	s10,0(sp)
    80000a20:	1080                	addi	s0,sp,96
    80000a22:	8c2a                	mv	s8,a0
    80000a24:	892e                	mv	s2,a1
    80000a26:	8ab2                	mv	s5,a2
    80000a28:	8a36                	mv	s4,a3
    va0 = PGROUNDDOWN(dstva);
    80000a2a:	7cfd                	lui	s9,0xfffff
    if(va0 >= MAXVA)
    80000a2c:	5bfd                	li	s7,-1
    80000a2e:	01abdb93          	srli	s7,s7,0x1a
      return -1;
    pte = walk(pagetable, va0, 0);
    if(pte == 0 || (*pte & PTE_V) == 0 || (*pte & PTE_U) == 0 ||
    80000a32:	4d55                	li	s10,21
       (*pte & PTE_W) == 0)
      return -1;
    pa0 = PTE2PA(*pte);
    n = PGSIZE - (dstva - va0);
    80000a34:	6b05                	lui	s6,0x1
    80000a36:	a015                	j	80000a5a <copyout+0x56>
    pa0 = PTE2PA(*pte);
    80000a38:	83a9                	srli	a5,a5,0xa
    80000a3a:	07b2                	slli	a5,a5,0xc
    if(n > len)
      n = len;
    memmove((void *)(pa0 + (dstva - va0)), src, n);
    80000a3c:	41390533          	sub	a0,s2,s3
    80000a40:	0004861b          	sext.w	a2,s1
    80000a44:	85d6                	mv	a1,s5
    80000a46:	953e                	add	a0,a0,a5
    80000a48:	f6aff0ef          	jal	800001b2 <memmove>

    len -= n;
    80000a4c:	409a0a33          	sub	s4,s4,s1
    src += n;
    80000a50:	9aa6                	add	s5,s5,s1
    dstva = va0 + PGSIZE;
    80000a52:	01698933          	add	s2,s3,s6
  while(len > 0){
    80000a56:	020a0863          	beqz	s4,80000a86 <copyout+0x82>
    va0 = PGROUNDDOWN(dstva);
    80000a5a:	019979b3          	and	s3,s2,s9
    if(va0 >= MAXVA)
    80000a5e:	033be863          	bltu	s7,s3,80000a8e <copyout+0x8a>
    pte = walk(pagetable, va0, 0);
    80000a62:	4601                	li	a2,0
    80000a64:	85ce                	mv	a1,s3
    80000a66:	8562                	mv	a0,s8
    80000a68:	97bff0ef          	jal	800003e2 <walk>
    if(pte == 0 || (*pte & PTE_V) == 0 || (*pte & PTE_U) == 0 ||
    80000a6c:	c121                	beqz	a0,80000aac <copyout+0xa8>
    80000a6e:	611c                	ld	a5,0(a0)
    80000a70:	0157f713          	andi	a4,a5,21
    80000a74:	03a71e63          	bne	a4,s10,80000ab0 <copyout+0xac>
    n = PGSIZE - (dstva - va0);
    80000a78:	412984b3          	sub	s1,s3,s2
    80000a7c:	94da                	add	s1,s1,s6
    if(n > len)
    80000a7e:	fa9a7de3          	bgeu	s4,s1,80000a38 <copyout+0x34>
    80000a82:	84d2                	mv	s1,s4
    80000a84:	bf55                	j	80000a38 <copyout+0x34>
  }
  return 0;
    80000a86:	4501                	li	a0,0
    80000a88:	a021                	j	80000a90 <copyout+0x8c>
    80000a8a:	4501                	li	a0,0
}
    80000a8c:	8082                	ret
      return -1;
    80000a8e:	557d                	li	a0,-1
}
    80000a90:	60e6                	ld	ra,88(sp)
    80000a92:	6446                	ld	s0,80(sp)
    80000a94:	64a6                	ld	s1,72(sp)
    80000a96:	6906                	ld	s2,64(sp)
    80000a98:	79e2                	ld	s3,56(sp)
    80000a9a:	7a42                	ld	s4,48(sp)
    80000a9c:	7aa2                	ld	s5,40(sp)
    80000a9e:	7b02                	ld	s6,32(sp)
    80000aa0:	6be2                	ld	s7,24(sp)
    80000aa2:	6c42                	ld	s8,16(sp)
    80000aa4:	6ca2                	ld	s9,8(sp)
    80000aa6:	6d02                	ld	s10,0(sp)
    80000aa8:	6125                	addi	sp,sp,96
    80000aaa:	8082                	ret
      return -1;
    80000aac:	557d                	li	a0,-1
    80000aae:	b7cd                	j	80000a90 <copyout+0x8c>
    80000ab0:	557d                	li	a0,-1
    80000ab2:	bff9                	j	80000a90 <copyout+0x8c>

0000000080000ab4 <copyin>:
int
copyin(pagetable_t pagetable, char *dst, uint64 srcva, uint64 len)
{
  uint64 n, va0, pa0;

  while(len > 0){
    80000ab4:	c6a5                	beqz	a3,80000b1c <copyin+0x68>
{
    80000ab6:	715d                	addi	sp,sp,-80
    80000ab8:	e486                	sd	ra,72(sp)
    80000aba:	e0a2                	sd	s0,64(sp)
    80000abc:	fc26                	sd	s1,56(sp)
    80000abe:	f84a                	sd	s2,48(sp)
    80000ac0:	f44e                	sd	s3,40(sp)
    80000ac2:	f052                	sd	s4,32(sp)
    80000ac4:	ec56                	sd	s5,24(sp)
    80000ac6:	e85a                	sd	s6,16(sp)
    80000ac8:	e45e                	sd	s7,8(sp)
    80000aca:	e062                	sd	s8,0(sp)
    80000acc:	0880                	addi	s0,sp,80
    80000ace:	8b2a                	mv	s6,a0
    80000ad0:	8a2e                	mv	s4,a1
    80000ad2:	8c32                	mv	s8,a2
    80000ad4:	89b6                	mv	s3,a3
    va0 = PGROUNDDOWN(srcva);
    80000ad6:	7bfd                	lui	s7,0xfffff
    pa0 = walkaddr(pagetable, va0);
    if(pa0 == 0)
      return -1;
    n = PGSIZE - (srcva - va0);
    80000ad8:	6a85                	lui	s5,0x1
    80000ada:	a00d                	j	80000afc <copyin+0x48>
    if(n > len)
      n = len;
    memmove(dst, (void *)(pa0 + (srcva - va0)), n);
    80000adc:	018505b3          	add	a1,a0,s8
    80000ae0:	0004861b          	sext.w	a2,s1
    80000ae4:	412585b3          	sub	a1,a1,s2
    80000ae8:	8552                	mv	a0,s4
    80000aea:	ec8ff0ef          	jal	800001b2 <memmove>

    len -= n;
    80000aee:	409989b3          	sub	s3,s3,s1
    dst += n;
    80000af2:	9a26                	add	s4,s4,s1
    srcva = va0 + PGSIZE;
    80000af4:	01590c33          	add	s8,s2,s5
  while(len > 0){
    80000af8:	02098063          	beqz	s3,80000b18 <copyin+0x64>
    va0 = PGROUNDDOWN(srcva);
    80000afc:	017c7933          	and	s2,s8,s7
    pa0 = walkaddr(pagetable, va0);
    80000b00:	85ca                	mv	a1,s2
    80000b02:	855a                	mv	a0,s6
    80000b04:	979ff0ef          	jal	8000047c <walkaddr>
    if(pa0 == 0)
    80000b08:	cd01                	beqz	a0,80000b20 <copyin+0x6c>
    n = PGSIZE - (srcva - va0);
    80000b0a:	418904b3          	sub	s1,s2,s8
    80000b0e:	94d6                	add	s1,s1,s5
    if(n > len)
    80000b10:	fc99f6e3          	bgeu	s3,s1,80000adc <copyin+0x28>
    80000b14:	84ce                	mv	s1,s3
    80000b16:	b7d9                	j	80000adc <copyin+0x28>
  }
  return 0;
    80000b18:	4501                	li	a0,0
    80000b1a:	a021                	j	80000b22 <copyin+0x6e>
    80000b1c:	4501                	li	a0,0
}
    80000b1e:	8082                	ret
      return -1;
    80000b20:	557d                	li	a0,-1
}
    80000b22:	60a6                	ld	ra,72(sp)
    80000b24:	6406                	ld	s0,64(sp)
    80000b26:	74e2                	ld	s1,56(sp)
    80000b28:	7942                	ld	s2,48(sp)
    80000b2a:	79a2                	ld	s3,40(sp)
    80000b2c:	7a02                	ld	s4,32(sp)
    80000b2e:	6ae2                	ld	s5,24(sp)
    80000b30:	6b42                	ld	s6,16(sp)
    80000b32:	6ba2                	ld	s7,8(sp)
    80000b34:	6c02                	ld	s8,0(sp)
    80000b36:	6161                	addi	sp,sp,80
    80000b38:	8082                	ret

0000000080000b3a <copyinstr>:
// Copy bytes to dst from virtual address srcva in a given page table,
// until a '\0', or max.
// Return 0 on success, -1 on error.
int
copyinstr(pagetable_t pagetable, char *dst, uint64 srcva, uint64 max)
{
    80000b3a:	715d                	addi	sp,sp,-80
    80000b3c:	e486                	sd	ra,72(sp)
    80000b3e:	e0a2                	sd	s0,64(sp)
    80000b40:	fc26                	sd	s1,56(sp)
    80000b42:	f84a                	sd	s2,48(sp)
    80000b44:	f44e                	sd	s3,40(sp)
    80000b46:	f052                	sd	s4,32(sp)
    80000b48:	ec56                	sd	s5,24(sp)
    80000b4a:	e85a                	sd	s6,16(sp)
    80000b4c:	e45e                	sd	s7,8(sp)
    80000b4e:	0880                	addi	s0,sp,80
    80000b50:	8aaa                	mv	s5,a0
    80000b52:	89ae                	mv	s3,a1
    80000b54:	8bb2                	mv	s7,a2
    80000b56:	84b6                	mv	s1,a3
  uint64 n, va0, pa0;
  int got_null = 0;

  while(got_null == 0 && max > 0){
    va0 = PGROUNDDOWN(srcva);
    80000b58:	7b7d                	lui	s6,0xfffff
    pa0 = walkaddr(pagetable, va0);
    if(pa0 == 0)
      return -1;
    n = PGSIZE - (srcva - va0);
    80000b5a:	6a05                	lui	s4,0x1
    80000b5c:	a02d                	j	80000b86 <copyinstr+0x4c>
      n = max;

    char *p = (char *) (pa0 + (srcva - va0));
    while(n > 0){
      if(*p == '\0'){
        *dst = '\0';
    80000b5e:	00078023          	sb	zero,0(a5)
    80000b62:	4785                	li	a5,1
      dst++;
    }

    srcva = va0 + PGSIZE;
  }
  if(got_null){
    80000b64:	0017c793          	xori	a5,a5,1
    80000b68:	40f0053b          	negw	a0,a5
    return 0;
  } else {
    return -1;
  }
}
    80000b6c:	60a6                	ld	ra,72(sp)
    80000b6e:	6406                	ld	s0,64(sp)
    80000b70:	74e2                	ld	s1,56(sp)
    80000b72:	7942                	ld	s2,48(sp)
    80000b74:	79a2                	ld	s3,40(sp)
    80000b76:	7a02                	ld	s4,32(sp)
    80000b78:	6ae2                	ld	s5,24(sp)
    80000b7a:	6b42                	ld	s6,16(sp)
    80000b7c:	6ba2                	ld	s7,8(sp)
    80000b7e:	6161                	addi	sp,sp,80
    80000b80:	8082                	ret
    srcva = va0 + PGSIZE;
    80000b82:	01490bb3          	add	s7,s2,s4
  while(got_null == 0 && max > 0){
    80000b86:	c4b1                	beqz	s1,80000bd2 <copyinstr+0x98>
    va0 = PGROUNDDOWN(srcva);
    80000b88:	016bf933          	and	s2,s7,s6
    pa0 = walkaddr(pagetable, va0);
    80000b8c:	85ca                	mv	a1,s2
    80000b8e:	8556                	mv	a0,s5
    80000b90:	8edff0ef          	jal	8000047c <walkaddr>
    if(pa0 == 0)
    80000b94:	c129                	beqz	a0,80000bd6 <copyinstr+0x9c>
    n = PGSIZE - (srcva - va0);
    80000b96:	41790633          	sub	a2,s2,s7
    80000b9a:	9652                	add	a2,a2,s4
    if(n > max)
    80000b9c:	00c4f363          	bgeu	s1,a2,80000ba2 <copyinstr+0x68>
    80000ba0:	8626                	mv	a2,s1
    char *p = (char *) (pa0 + (srcva - va0));
    80000ba2:	412b8bb3          	sub	s7,s7,s2
    80000ba6:	9baa                	add	s7,s7,a0
    while(n > 0){
    80000ba8:	de69                	beqz	a2,80000b82 <copyinstr+0x48>
    80000baa:	87ce                	mv	a5,s3
      if(*p == '\0'){
    80000bac:	413b86b3          	sub	a3,s7,s3
    while(n > 0){
    80000bb0:	964e                	add	a2,a2,s3
    80000bb2:	85be                	mv	a1,a5
      if(*p == '\0'){
    80000bb4:	00f68733          	add	a4,a3,a5
    80000bb8:	00074703          	lbu	a4,0(a4)
    80000bbc:	d34d                	beqz	a4,80000b5e <copyinstr+0x24>
        *dst = *p;
    80000bbe:	00e78023          	sb	a4,0(a5)
      dst++;
    80000bc2:	0785                	addi	a5,a5,1
    while(n > 0){
    80000bc4:	fec797e3          	bne	a5,a2,80000bb2 <copyinstr+0x78>
    80000bc8:	14fd                	addi	s1,s1,-1
    80000bca:	94ce                	add	s1,s1,s3
      --max;
    80000bcc:	8c8d                	sub	s1,s1,a1
    80000bce:	89be                	mv	s3,a5
    80000bd0:	bf4d                	j	80000b82 <copyinstr+0x48>
    80000bd2:	4781                	li	a5,0
    80000bd4:	bf41                	j	80000b64 <copyinstr+0x2a>
      return -1;
    80000bd6:	557d                	li	a0,-1
    80000bd8:	bf51                	j	80000b6c <copyinstr+0x32>

0000000080000bda <proc_mapstacks>:
// Allocate a page for each process's kernel stack.
// Map it high in memory, followed by an invalid
// guard page.
void
proc_mapstacks(pagetable_t kpgtbl)
{
    80000bda:	715d                	addi	sp,sp,-80
    80000bdc:	e486                	sd	ra,72(sp)
    80000bde:	e0a2                	sd	s0,64(sp)
    80000be0:	fc26                	sd	s1,56(sp)
    80000be2:	f84a                	sd	s2,48(sp)
    80000be4:	f44e                	sd	s3,40(sp)
    80000be6:	f052                	sd	s4,32(sp)
    80000be8:	ec56                	sd	s5,24(sp)
    80000bea:	e85a                	sd	s6,16(sp)
    80000bec:	e45e                	sd	s7,8(sp)
    80000bee:	e062                	sd	s8,0(sp)
    80000bf0:	0880                	addi	s0,sp,80
    80000bf2:	8a2a                	mv	s4,a0
  struct proc *p;
  
  for(p = proc; p < &proc[NPROC]; p++) {
    80000bf4:	00007497          	auipc	s1,0x7
    80000bf8:	17c48493          	addi	s1,s1,380 # 80007d70 <proc>
    char *pa = kalloc();
    if(pa == 0)
      panic("kalloc");
    uint64 va = KSTACK((int) (p - proc));
    80000bfc:	8c26                	mv	s8,s1
    80000bfe:	a4fa57b7          	lui	a5,0xa4fa5
    80000c02:	fa578793          	addi	a5,a5,-91 # ffffffffa4fa4fa5 <end+0xffffffff24f88f45>
    80000c06:	4fa50937          	lui	s2,0x4fa50
    80000c0a:	a5090913          	addi	s2,s2,-1456 # 4fa4fa50 <_entry-0x305b05b0>
    80000c0e:	1902                	slli	s2,s2,0x20
    80000c10:	993e                	add	s2,s2,a5
    80000c12:	040009b7          	lui	s3,0x4000
    80000c16:	19fd                	addi	s3,s3,-1 # 3ffffff <_entry-0x7c000001>
    80000c18:	09b2                	slli	s3,s3,0xc
    kvmmap(kpgtbl, va, (uint64)pa, PGSIZE, PTE_R | PTE_W);
    80000c1a:	4b99                	li	s7,6
    80000c1c:	6b05                	lui	s6,0x1
  for(p = proc; p < &proc[NPROC]; p++) {
    80000c1e:	00008a97          	auipc	s5,0x8
    80000c22:	f62a8a93          	addi	s5,s5,-158 # 80008b80 <tickslock>
    char *pa = kalloc();
    80000c26:	cd8ff0ef          	jal	800000fe <kalloc>
    80000c2a:	862a                	mv	a2,a0
    if(pa == 0)
    80000c2c:	c121                	beqz	a0,80000c6c <proc_mapstacks+0x92>
    uint64 va = KSTACK((int) (p - proc));
    80000c2e:	418485b3          	sub	a1,s1,s8
    80000c32:	858d                	srai	a1,a1,0x3
    80000c34:	032585b3          	mul	a1,a1,s2
    80000c38:	2585                	addiw	a1,a1,1
    80000c3a:	00d5959b          	slliw	a1,a1,0xd
    kvmmap(kpgtbl, va, (uint64)pa, PGSIZE, PTE_R | PTE_W);
    80000c3e:	875e                	mv	a4,s7
    80000c40:	86da                	mv	a3,s6
    80000c42:	40b985b3          	sub	a1,s3,a1
    80000c46:	8552                	mv	a0,s4
    80000c48:	929ff0ef          	jal	80000570 <kvmmap>
  for(p = proc; p < &proc[NPROC]; p++) {
    80000c4c:	16848493          	addi	s1,s1,360
    80000c50:	fd549be3          	bne	s1,s5,80000c26 <proc_mapstacks+0x4c>
  }
}
    80000c54:	60a6                	ld	ra,72(sp)
    80000c56:	6406                	ld	s0,64(sp)
    80000c58:	74e2                	ld	s1,56(sp)
    80000c5a:	7942                	ld	s2,48(sp)
    80000c5c:	79a2                	ld	s3,40(sp)
    80000c5e:	7a02                	ld	s4,32(sp)
    80000c60:	6ae2                	ld	s5,24(sp)
    80000c62:	6b42                	ld	s6,16(sp)
    80000c64:	6ba2                	ld	s7,8(sp)
    80000c66:	6c02                	ld	s8,0(sp)
    80000c68:	6161                	addi	sp,sp,80
    80000c6a:	8082                	ret
      panic("kalloc");
    80000c6c:	00006517          	auipc	a0,0x6
    80000c70:	52c50513          	addi	a0,a0,1324 # 80007198 <etext+0x198>
    80000c74:	233040ef          	jal	800056a6 <panic>

0000000080000c78 <procinit>:

// initialize the proc table.
void
procinit(void)
{
    80000c78:	7139                	addi	sp,sp,-64
    80000c7a:	fc06                	sd	ra,56(sp)
    80000c7c:	f822                	sd	s0,48(sp)
    80000c7e:	f426                	sd	s1,40(sp)
    80000c80:	f04a                	sd	s2,32(sp)
    80000c82:	ec4e                	sd	s3,24(sp)
    80000c84:	e852                	sd	s4,16(sp)
    80000c86:	e456                	sd	s5,8(sp)
    80000c88:	e05a                	sd	s6,0(sp)
    80000c8a:	0080                	addi	s0,sp,64
  struct proc *p;
  
  initlock(&pid_lock, "nextpid");
    80000c8c:	00006597          	auipc	a1,0x6
    80000c90:	51458593          	addi	a1,a1,1300 # 800071a0 <etext+0x1a0>
    80000c94:	00007517          	auipc	a0,0x7
    80000c98:	cac50513          	addi	a0,a0,-852 # 80007940 <pid_lock>
    80000c9c:	4b5040ef          	jal	80005950 <initlock>
  initlock(&wait_lock, "wait_lock");
    80000ca0:	00006597          	auipc	a1,0x6
    80000ca4:	50858593          	addi	a1,a1,1288 # 800071a8 <etext+0x1a8>
    80000ca8:	00007517          	auipc	a0,0x7
    80000cac:	cb050513          	addi	a0,a0,-848 # 80007958 <wait_lock>
    80000cb0:	4a1040ef          	jal	80005950 <initlock>
  for(p = proc; p < &proc[NPROC]; p++) {
    80000cb4:	00007497          	auipc	s1,0x7
    80000cb8:	0bc48493          	addi	s1,s1,188 # 80007d70 <proc>
      initlock(&p->lock, "proc");
    80000cbc:	00006b17          	auipc	s6,0x6
    80000cc0:	4fcb0b13          	addi	s6,s6,1276 # 800071b8 <etext+0x1b8>
      p->state = UNUSED;
      p->kstack = KSTACK((int) (p - proc));
    80000cc4:	8aa6                	mv	s5,s1
    80000cc6:	a4fa57b7          	lui	a5,0xa4fa5
    80000cca:	fa578793          	addi	a5,a5,-91 # ffffffffa4fa4fa5 <end+0xffffffff24f88f45>
    80000cce:	4fa50937          	lui	s2,0x4fa50
    80000cd2:	a5090913          	addi	s2,s2,-1456 # 4fa4fa50 <_entry-0x305b05b0>
    80000cd6:	1902                	slli	s2,s2,0x20
    80000cd8:	993e                	add	s2,s2,a5
    80000cda:	040009b7          	lui	s3,0x4000
    80000cde:	19fd                	addi	s3,s3,-1 # 3ffffff <_entry-0x7c000001>
    80000ce0:	09b2                	slli	s3,s3,0xc
  for(p = proc; p < &proc[NPROC]; p++) {
    80000ce2:	00008a17          	auipc	s4,0x8
    80000ce6:	e9ea0a13          	addi	s4,s4,-354 # 80008b80 <tickslock>
      initlock(&p->lock, "proc");
    80000cea:	85da                	mv	a1,s6
    80000cec:	8526                	mv	a0,s1
    80000cee:	463040ef          	jal	80005950 <initlock>
      p->state = UNUSED;
    80000cf2:	0004ac23          	sw	zero,24(s1)
      p->kstack = KSTACK((int) (p - proc));
    80000cf6:	415487b3          	sub	a5,s1,s5
    80000cfa:	878d                	srai	a5,a5,0x3
    80000cfc:	032787b3          	mul	a5,a5,s2
    80000d00:	2785                	addiw	a5,a5,1
    80000d02:	00d7979b          	slliw	a5,a5,0xd
    80000d06:	40f987b3          	sub	a5,s3,a5
    80000d0a:	e0bc                	sd	a5,64(s1)
  for(p = proc; p < &proc[NPROC]; p++) {
    80000d0c:	16848493          	addi	s1,s1,360
    80000d10:	fd449de3          	bne	s1,s4,80000cea <procinit+0x72>
  }
}
    80000d14:	70e2                	ld	ra,56(sp)
    80000d16:	7442                	ld	s0,48(sp)
    80000d18:	74a2                	ld	s1,40(sp)
    80000d1a:	7902                	ld	s2,32(sp)
    80000d1c:	69e2                	ld	s3,24(sp)
    80000d1e:	6a42                	ld	s4,16(sp)
    80000d20:	6aa2                	ld	s5,8(sp)
    80000d22:	6b02                	ld	s6,0(sp)
    80000d24:	6121                	addi	sp,sp,64
    80000d26:	8082                	ret

0000000080000d28 <cpuid>:
// Must be called with interrupts disabled,
// to prevent race with process being moved
// to a different CPU.
int
cpuid()
{
    80000d28:	1141                	addi	sp,sp,-16
    80000d2a:	e406                	sd	ra,8(sp)
    80000d2c:	e022                	sd	s0,0(sp)
    80000d2e:	0800                	addi	s0,sp,16
  asm volatile("mv %0, tp" : "=r" (x) );
    80000d30:	8512                	mv	a0,tp
  int id = r_tp();
  return id;
}
    80000d32:	2501                	sext.w	a0,a0
    80000d34:	60a2                	ld	ra,8(sp)
    80000d36:	6402                	ld	s0,0(sp)
    80000d38:	0141                	addi	sp,sp,16
    80000d3a:	8082                	ret

0000000080000d3c <mycpu>:

// Return this CPU's cpu struct.
// Interrupts must be disabled.
struct cpu*
mycpu(void)
{
    80000d3c:	1141                	addi	sp,sp,-16
    80000d3e:	e406                	sd	ra,8(sp)
    80000d40:	e022                	sd	s0,0(sp)
    80000d42:	0800                	addi	s0,sp,16
    80000d44:	8792                	mv	a5,tp
  int id = cpuid();
  struct cpu *c = &cpus[id];
    80000d46:	2781                	sext.w	a5,a5
    80000d48:	079e                	slli	a5,a5,0x7
  return c;
}
    80000d4a:	00007517          	auipc	a0,0x7
    80000d4e:	c2650513          	addi	a0,a0,-986 # 80007970 <cpus>
    80000d52:	953e                	add	a0,a0,a5
    80000d54:	60a2                	ld	ra,8(sp)
    80000d56:	6402                	ld	s0,0(sp)
    80000d58:	0141                	addi	sp,sp,16
    80000d5a:	8082                	ret

0000000080000d5c <myproc>:

// Return the current struct proc *, or zero if none.
struct proc*
myproc(void)
{
    80000d5c:	1101                	addi	sp,sp,-32
    80000d5e:	ec06                	sd	ra,24(sp)
    80000d60:	e822                	sd	s0,16(sp)
    80000d62:	e426                	sd	s1,8(sp)
    80000d64:	1000                	addi	s0,sp,32
  push_off();
    80000d66:	42f040ef          	jal	80005994 <push_off>
    80000d6a:	8792                	mv	a5,tp
  struct cpu *c = mycpu();
  struct proc *p = c->proc;
    80000d6c:	2781                	sext.w	a5,a5
    80000d6e:	079e                	slli	a5,a5,0x7
    80000d70:	00007717          	auipc	a4,0x7
    80000d74:	bd070713          	addi	a4,a4,-1072 # 80007940 <pid_lock>
    80000d78:	97ba                	add	a5,a5,a4
    80000d7a:	7b84                	ld	s1,48(a5)
  pop_off();
    80000d7c:	49d040ef          	jal	80005a18 <pop_off>
  return p;
}
    80000d80:	8526                	mv	a0,s1
    80000d82:	60e2                	ld	ra,24(sp)
    80000d84:	6442                	ld	s0,16(sp)
    80000d86:	64a2                	ld	s1,8(sp)
    80000d88:	6105                	addi	sp,sp,32
    80000d8a:	8082                	ret

0000000080000d8c <forkret>:

// A fork child's very first scheduling by scheduler()
// will swtch to forkret.
void
forkret(void)
{
    80000d8c:	1141                	addi	sp,sp,-16
    80000d8e:	e406                	sd	ra,8(sp)
    80000d90:	e022                	sd	s0,0(sp)
    80000d92:	0800                	addi	s0,sp,16
  static int first = 1;
  
  // Still holding p->lock from scheduler.
  release(&myproc()->lock);
    80000d94:	fc9ff0ef          	jal	80000d5c <myproc>
    80000d98:	4d1040ef          	jal	80005a68 <release>

  if (first) {
    80000d9c:	00007797          	auipc	a5,0x7
    80000da0:	b047a783          	lw	a5,-1276(a5) # 800078a0 <first.1>
    80000da4:	e799                	bnez	a5,80000db2 <forkret+0x26>
    first = 0;
    // ensure other cores see first=0.
    __sync_synchronize();
  }

  usertrapret();
    80000da6:	2b3000ef          	jal	80001858 <usertrapret>
}
    80000daa:	60a2                	ld	ra,8(sp)
    80000dac:	6402                	ld	s0,0(sp)
    80000dae:	0141                	addi	sp,sp,16
    80000db0:	8082                	ret
    fsinit(ROOTDEV);
    80000db2:	4505                	li	a0,1
    80000db4:	6c8010ef          	jal	8000247c <fsinit>
    first = 0;
    80000db8:	00007797          	auipc	a5,0x7
    80000dbc:	ae07a423          	sw	zero,-1304(a5) # 800078a0 <first.1>
    __sync_synchronize();
    80000dc0:	0330000f          	fence	rw,rw
    80000dc4:	b7cd                	j	80000da6 <forkret+0x1a>

0000000080000dc6 <allocpid>:
{
    80000dc6:	1101                	addi	sp,sp,-32
    80000dc8:	ec06                	sd	ra,24(sp)
    80000dca:	e822                	sd	s0,16(sp)
    80000dcc:	e426                	sd	s1,8(sp)
    80000dce:	e04a                	sd	s2,0(sp)
    80000dd0:	1000                	addi	s0,sp,32
  acquire(&pid_lock);
    80000dd2:	00007917          	auipc	s2,0x7
    80000dd6:	b6e90913          	addi	s2,s2,-1170 # 80007940 <pid_lock>
    80000dda:	854a                	mv	a0,s2
    80000ddc:	3f9040ef          	jal	800059d4 <acquire>
  pid = nextpid;
    80000de0:	00007797          	auipc	a5,0x7
    80000de4:	ac478793          	addi	a5,a5,-1340 # 800078a4 <nextpid>
    80000de8:	4384                	lw	s1,0(a5)
  nextpid = nextpid + 1;
    80000dea:	0014871b          	addiw	a4,s1,1
    80000dee:	c398                	sw	a4,0(a5)
  release(&pid_lock);
    80000df0:	854a                	mv	a0,s2
    80000df2:	477040ef          	jal	80005a68 <release>
}
    80000df6:	8526                	mv	a0,s1
    80000df8:	60e2                	ld	ra,24(sp)
    80000dfa:	6442                	ld	s0,16(sp)
    80000dfc:	64a2                	ld	s1,8(sp)
    80000dfe:	6902                	ld	s2,0(sp)
    80000e00:	6105                	addi	sp,sp,32
    80000e02:	8082                	ret

0000000080000e04 <proc_pagetable>:
{
    80000e04:	1101                	addi	sp,sp,-32
    80000e06:	ec06                	sd	ra,24(sp)
    80000e08:	e822                	sd	s0,16(sp)
    80000e0a:	e426                	sd	s1,8(sp)
    80000e0c:	e04a                	sd	s2,0(sp)
    80000e0e:	1000                	addi	s0,sp,32
    80000e10:	892a                	mv	s2,a0
  pagetable = uvmcreate();
    80000e12:	90bff0ef          	jal	8000071c <uvmcreate>
    80000e16:	84aa                	mv	s1,a0
  if(pagetable == 0)
    80000e18:	cd05                	beqz	a0,80000e50 <proc_pagetable+0x4c>
  if(mappages(pagetable, TRAMPOLINE, PGSIZE,
    80000e1a:	4729                	li	a4,10
    80000e1c:	00005697          	auipc	a3,0x5
    80000e20:	1e468693          	addi	a3,a3,484 # 80006000 <_trampoline>
    80000e24:	6605                	lui	a2,0x1
    80000e26:	040005b7          	lui	a1,0x4000
    80000e2a:	15fd                	addi	a1,a1,-1 # 3ffffff <_entry-0x7c000001>
    80000e2c:	05b2                	slli	a1,a1,0xc
    80000e2e:	e8cff0ef          	jal	800004ba <mappages>
    80000e32:	02054663          	bltz	a0,80000e5e <proc_pagetable+0x5a>
  if(mappages(pagetable, TRAPFRAME, PGSIZE,
    80000e36:	4719                	li	a4,6
    80000e38:	05893683          	ld	a3,88(s2)
    80000e3c:	6605                	lui	a2,0x1
    80000e3e:	020005b7          	lui	a1,0x2000
    80000e42:	15fd                	addi	a1,a1,-1 # 1ffffff <_entry-0x7e000001>
    80000e44:	05b6                	slli	a1,a1,0xd
    80000e46:	8526                	mv	a0,s1
    80000e48:	e72ff0ef          	jal	800004ba <mappages>
    80000e4c:	00054f63          	bltz	a0,80000e6a <proc_pagetable+0x66>
}
    80000e50:	8526                	mv	a0,s1
    80000e52:	60e2                	ld	ra,24(sp)
    80000e54:	6442                	ld	s0,16(sp)
    80000e56:	64a2                	ld	s1,8(sp)
    80000e58:	6902                	ld	s2,0(sp)
    80000e5a:	6105                	addi	sp,sp,32
    80000e5c:	8082                	ret
    uvmfree(pagetable, 0);
    80000e5e:	4581                	li	a1,0
    80000e60:	8526                	mv	a0,s1
    80000e62:	a91ff0ef          	jal	800008f2 <uvmfree>
    return 0;
    80000e66:	4481                	li	s1,0
    80000e68:	b7e5                	j	80000e50 <proc_pagetable+0x4c>
    uvmunmap(pagetable, TRAMPOLINE, 1, 0);
    80000e6a:	4681                	li	a3,0
    80000e6c:	4605                	li	a2,1
    80000e6e:	040005b7          	lui	a1,0x4000
    80000e72:	15fd                	addi	a1,a1,-1 # 3ffffff <_entry-0x7c000001>
    80000e74:	05b2                	slli	a1,a1,0xc
    80000e76:	8526                	mv	a0,s1
    80000e78:	fe8ff0ef          	jal	80000660 <uvmunmap>
    uvmfree(pagetable, 0);
    80000e7c:	4581                	li	a1,0
    80000e7e:	8526                	mv	a0,s1
    80000e80:	a73ff0ef          	jal	800008f2 <uvmfree>
    return 0;
    80000e84:	4481                	li	s1,0
    80000e86:	b7e9                	j	80000e50 <proc_pagetable+0x4c>

0000000080000e88 <proc_freepagetable>:
{
    80000e88:	1101                	addi	sp,sp,-32
    80000e8a:	ec06                	sd	ra,24(sp)
    80000e8c:	e822                	sd	s0,16(sp)
    80000e8e:	e426                	sd	s1,8(sp)
    80000e90:	e04a                	sd	s2,0(sp)
    80000e92:	1000                	addi	s0,sp,32
    80000e94:	84aa                	mv	s1,a0
    80000e96:	892e                	mv	s2,a1
  uvmunmap(pagetable, TRAMPOLINE, 1, 0);
    80000e98:	4681                	li	a3,0
    80000e9a:	4605                	li	a2,1
    80000e9c:	040005b7          	lui	a1,0x4000
    80000ea0:	15fd                	addi	a1,a1,-1 # 3ffffff <_entry-0x7c000001>
    80000ea2:	05b2                	slli	a1,a1,0xc
    80000ea4:	fbcff0ef          	jal	80000660 <uvmunmap>
  uvmunmap(pagetable, TRAPFRAME, 1, 0);
    80000ea8:	4681                	li	a3,0
    80000eaa:	4605                	li	a2,1
    80000eac:	020005b7          	lui	a1,0x2000
    80000eb0:	15fd                	addi	a1,a1,-1 # 1ffffff <_entry-0x7e000001>
    80000eb2:	05b6                	slli	a1,a1,0xd
    80000eb4:	8526                	mv	a0,s1
    80000eb6:	faaff0ef          	jal	80000660 <uvmunmap>
  uvmfree(pagetable, sz);
    80000eba:	85ca                	mv	a1,s2
    80000ebc:	8526                	mv	a0,s1
    80000ebe:	a35ff0ef          	jal	800008f2 <uvmfree>
}
    80000ec2:	60e2                	ld	ra,24(sp)
    80000ec4:	6442                	ld	s0,16(sp)
    80000ec6:	64a2                	ld	s1,8(sp)
    80000ec8:	6902                	ld	s2,0(sp)
    80000eca:	6105                	addi	sp,sp,32
    80000ecc:	8082                	ret

0000000080000ece <freeproc>:
{
    80000ece:	1101                	addi	sp,sp,-32
    80000ed0:	ec06                	sd	ra,24(sp)
    80000ed2:	e822                	sd	s0,16(sp)
    80000ed4:	e426                	sd	s1,8(sp)
    80000ed6:	1000                	addi	s0,sp,32
    80000ed8:	84aa                	mv	s1,a0
  if(p->trapframe)
    80000eda:	6d28                	ld	a0,88(a0)
    80000edc:	c119                	beqz	a0,80000ee2 <freeproc+0x14>
    kfree((void*)p->trapframe);
    80000ede:	93eff0ef          	jal	8000001c <kfree>
  p->trapframe = 0;
    80000ee2:	0404bc23          	sd	zero,88(s1)
  if(p->pagetable)
    80000ee6:	68a8                	ld	a0,80(s1)
    80000ee8:	c501                	beqz	a0,80000ef0 <freeproc+0x22>
    proc_freepagetable(p->pagetable, p->sz);
    80000eea:	64ac                	ld	a1,72(s1)
    80000eec:	f9dff0ef          	jal	80000e88 <proc_freepagetable>
  p->pagetable = 0;
    80000ef0:	0404b823          	sd	zero,80(s1)
  p->sz = 0;
    80000ef4:	0404b423          	sd	zero,72(s1)
  p->pid = 0;
    80000ef8:	0204a823          	sw	zero,48(s1)
  p->parent = 0;
    80000efc:	0204bc23          	sd	zero,56(s1)
  p->name[0] = 0;
    80000f00:	14048c23          	sb	zero,344(s1)
  p->chan = 0;
    80000f04:	0204b023          	sd	zero,32(s1)
  p->killed = 0;
    80000f08:	0204a423          	sw	zero,40(s1)
  p->xstate = 0;
    80000f0c:	0204a623          	sw	zero,44(s1)
  p->state = UNUSED;
    80000f10:	0004ac23          	sw	zero,24(s1)
}
    80000f14:	60e2                	ld	ra,24(sp)
    80000f16:	6442                	ld	s0,16(sp)
    80000f18:	64a2                	ld	s1,8(sp)
    80000f1a:	6105                	addi	sp,sp,32
    80000f1c:	8082                	ret

0000000080000f1e <allocproc>:
{
    80000f1e:	1101                	addi	sp,sp,-32
    80000f20:	ec06                	sd	ra,24(sp)
    80000f22:	e822                	sd	s0,16(sp)
    80000f24:	e426                	sd	s1,8(sp)
    80000f26:	e04a                	sd	s2,0(sp)
    80000f28:	1000                	addi	s0,sp,32
  for(p = proc; p < &proc[NPROC]; p++) {
    80000f2a:	00007497          	auipc	s1,0x7
    80000f2e:	e4648493          	addi	s1,s1,-442 # 80007d70 <proc>
    80000f32:	00008917          	auipc	s2,0x8
    80000f36:	c4e90913          	addi	s2,s2,-946 # 80008b80 <tickslock>
    acquire(&p->lock);
    80000f3a:	8526                	mv	a0,s1
    80000f3c:	299040ef          	jal	800059d4 <acquire>
    if(p->state == UNUSED) {
    80000f40:	4c9c                	lw	a5,24(s1)
    80000f42:	c385                	beqz	a5,80000f62 <allocproc+0x44>
      release(&p->lock);
    80000f44:	8526                	mv	a0,s1
    80000f46:	323040ef          	jal	80005a68 <release>
  for(p = proc; p < &proc[NPROC]; p++) {
    80000f4a:	16848493          	addi	s1,s1,360
    80000f4e:	ff2496e3          	bne	s1,s2,80000f3a <allocproc+0x1c>
  return 0;
    80000f52:	4481                	li	s1,0
}
    80000f54:	8526                	mv	a0,s1
    80000f56:	60e2                	ld	ra,24(sp)
    80000f58:	6442                	ld	s0,16(sp)
    80000f5a:	64a2                	ld	s1,8(sp)
    80000f5c:	6902                	ld	s2,0(sp)
    80000f5e:	6105                	addi	sp,sp,32
    80000f60:	8082                	ret
  p->pid = allocpid();
    80000f62:	e65ff0ef          	jal	80000dc6 <allocpid>
    80000f66:	d888                	sw	a0,48(s1)
  p->state = USED;
    80000f68:	4785                	li	a5,1
    80000f6a:	cc9c                	sw	a5,24(s1)
  if((p->trapframe = (struct trapframe *)kalloc()) == 0){
    80000f6c:	992ff0ef          	jal	800000fe <kalloc>
    80000f70:	892a                	mv	s2,a0
    80000f72:	eca8                	sd	a0,88(s1)
    80000f74:	c905                	beqz	a0,80000fa4 <allocproc+0x86>
  p->pagetable = proc_pagetable(p);
    80000f76:	8526                	mv	a0,s1
    80000f78:	e8dff0ef          	jal	80000e04 <proc_pagetable>
    80000f7c:	892a                	mv	s2,a0
    80000f7e:	e8a8                	sd	a0,80(s1)
  if(p->pagetable == 0){
    80000f80:	c915                	beqz	a0,80000fb4 <allocproc+0x96>
  memset(&p->context, 0, sizeof(p->context));
    80000f82:	07000613          	li	a2,112
    80000f86:	4581                	li	a1,0
    80000f88:	06048513          	addi	a0,s1,96
    80000f8c:	9c2ff0ef          	jal	8000014e <memset>
  p->context.ra = (uint64)forkret;
    80000f90:	00000797          	auipc	a5,0x0
    80000f94:	dfc78793          	addi	a5,a5,-516 # 80000d8c <forkret>
    80000f98:	f0bc                	sd	a5,96(s1)
  p->context.sp = p->kstack + PGSIZE;
    80000f9a:	60bc                	ld	a5,64(s1)
    80000f9c:	6705                	lui	a4,0x1
    80000f9e:	97ba                	add	a5,a5,a4
    80000fa0:	f4bc                	sd	a5,104(s1)
  return p;
    80000fa2:	bf4d                	j	80000f54 <allocproc+0x36>
    freeproc(p);
    80000fa4:	8526                	mv	a0,s1
    80000fa6:	f29ff0ef          	jal	80000ece <freeproc>
    release(&p->lock);
    80000faa:	8526                	mv	a0,s1
    80000fac:	2bd040ef          	jal	80005a68 <release>
    return 0;
    80000fb0:	84ca                	mv	s1,s2
    80000fb2:	b74d                	j	80000f54 <allocproc+0x36>
    freeproc(p);
    80000fb4:	8526                	mv	a0,s1
    80000fb6:	f19ff0ef          	jal	80000ece <freeproc>
    release(&p->lock);
    80000fba:	8526                	mv	a0,s1
    80000fbc:	2ad040ef          	jal	80005a68 <release>
    return 0;
    80000fc0:	84ca                	mv	s1,s2
    80000fc2:	bf49                	j	80000f54 <allocproc+0x36>

0000000080000fc4 <userinit>:
{
    80000fc4:	1101                	addi	sp,sp,-32
    80000fc6:	ec06                	sd	ra,24(sp)
    80000fc8:	e822                	sd	s0,16(sp)
    80000fca:	e426                	sd	s1,8(sp)
    80000fcc:	1000                	addi	s0,sp,32
  p = allocproc();
    80000fce:	f51ff0ef          	jal	80000f1e <allocproc>
    80000fd2:	84aa                	mv	s1,a0
  initproc = p;
    80000fd4:	00007797          	auipc	a5,0x7
    80000fd8:	92a7b623          	sd	a0,-1748(a5) # 80007900 <initproc>
  uvmfirst(p->pagetable, initcode, sizeof(initcode));
    80000fdc:	03400613          	li	a2,52
    80000fe0:	00007597          	auipc	a1,0x7
    80000fe4:	8d058593          	addi	a1,a1,-1840 # 800078b0 <initcode>
    80000fe8:	6928                	ld	a0,80(a0)
    80000fea:	f58ff0ef          	jal	80000742 <uvmfirst>
  p->sz = PGSIZE;
    80000fee:	6785                	lui	a5,0x1
    80000ff0:	e4bc                	sd	a5,72(s1)
  p->trapframe->epc = 0;      // user program counter
    80000ff2:	6cb8                	ld	a4,88(s1)
    80000ff4:	00073c23          	sd	zero,24(a4) # 1018 <_entry-0x7fffefe8>
  p->trapframe->sp = PGSIZE;  // user stack pointer
    80000ff8:	6cb8                	ld	a4,88(s1)
    80000ffa:	fb1c                	sd	a5,48(a4)
  safestrcpy(p->name, "initcode", sizeof(p->name));
    80000ffc:	4641                	li	a2,16
    80000ffe:	00006597          	auipc	a1,0x6
    80001002:	1c258593          	addi	a1,a1,450 # 800071c0 <etext+0x1c0>
    80001006:	15848513          	addi	a0,s1,344
    8000100a:	a96ff0ef          	jal	800002a0 <safestrcpy>
  p->cwd = namei("/");
    8000100e:	00006517          	auipc	a0,0x6
    80001012:	1c250513          	addi	a0,a0,450 # 800071d0 <etext+0x1d0>
    80001016:	619010ef          	jal	80002e2e <namei>
    8000101a:	14a4b823          	sd	a0,336(s1)
  p->state = RUNNABLE;
    8000101e:	478d                	li	a5,3
    80001020:	cc9c                	sw	a5,24(s1)
  release(&p->lock);
    80001022:	8526                	mv	a0,s1
    80001024:	245040ef          	jal	80005a68 <release>
}
    80001028:	60e2                	ld	ra,24(sp)
    8000102a:	6442                	ld	s0,16(sp)
    8000102c:	64a2                	ld	s1,8(sp)
    8000102e:	6105                	addi	sp,sp,32
    80001030:	8082                	ret

0000000080001032 <growproc>:
{
    80001032:	1101                	addi	sp,sp,-32
    80001034:	ec06                	sd	ra,24(sp)
    80001036:	e822                	sd	s0,16(sp)
    80001038:	e426                	sd	s1,8(sp)
    8000103a:	e04a                	sd	s2,0(sp)
    8000103c:	1000                	addi	s0,sp,32
    8000103e:	892a                	mv	s2,a0
  struct proc *p = myproc();
    80001040:	d1dff0ef          	jal	80000d5c <myproc>
    80001044:	84aa                	mv	s1,a0
  sz = p->sz;
    80001046:	652c                	ld	a1,72(a0)
  if(n > 0){
    80001048:	01204c63          	bgtz	s2,80001060 <growproc+0x2e>
  } else if(n < 0){
    8000104c:	02094463          	bltz	s2,80001074 <growproc+0x42>
  p->sz = sz;
    80001050:	e4ac                	sd	a1,72(s1)
  return 0;
    80001052:	4501                	li	a0,0
}
    80001054:	60e2                	ld	ra,24(sp)
    80001056:	6442                	ld	s0,16(sp)
    80001058:	64a2                	ld	s1,8(sp)
    8000105a:	6902                	ld	s2,0(sp)
    8000105c:	6105                	addi	sp,sp,32
    8000105e:	8082                	ret
    if((sz = uvmalloc(p->pagetable, sz, sz + n, PTE_W)) == 0) {
    80001060:	4691                	li	a3,4
    80001062:	00b90633          	add	a2,s2,a1
    80001066:	6928                	ld	a0,80(a0)
    80001068:	f7cff0ef          	jal	800007e4 <uvmalloc>
    8000106c:	85aa                	mv	a1,a0
    8000106e:	f16d                	bnez	a0,80001050 <growproc+0x1e>
      return -1;
    80001070:	557d                	li	a0,-1
    80001072:	b7cd                	j	80001054 <growproc+0x22>
    sz = uvmdealloc(p->pagetable, sz, sz + n);
    80001074:	00b90633          	add	a2,s2,a1
    80001078:	6928                	ld	a0,80(a0)
    8000107a:	f26ff0ef          	jal	800007a0 <uvmdealloc>
    8000107e:	85aa                	mv	a1,a0
    80001080:	bfc1                	j	80001050 <growproc+0x1e>

0000000080001082 <fork>:
{
    80001082:	7139                	addi	sp,sp,-64
    80001084:	fc06                	sd	ra,56(sp)
    80001086:	f822                	sd	s0,48(sp)
    80001088:	f04a                	sd	s2,32(sp)
    8000108a:	e456                	sd	s5,8(sp)
    8000108c:	0080                	addi	s0,sp,64
  struct proc *p = myproc();
    8000108e:	ccfff0ef          	jal	80000d5c <myproc>
    80001092:	8aaa                	mv	s5,a0
  if((np = allocproc()) == 0){
    80001094:	e8bff0ef          	jal	80000f1e <allocproc>
    80001098:	0e050a63          	beqz	a0,8000118c <fork+0x10a>
    8000109c:	e852                	sd	s4,16(sp)
    8000109e:	8a2a                	mv	s4,a0
  if(uvmcopy(p->pagetable, np->pagetable, p->sz) < 0){
    800010a0:	048ab603          	ld	a2,72(s5)
    800010a4:	692c                	ld	a1,80(a0)
    800010a6:	050ab503          	ld	a0,80(s5)
    800010aa:	87bff0ef          	jal	80000924 <uvmcopy>
    800010ae:	04054a63          	bltz	a0,80001102 <fork+0x80>
    800010b2:	f426                	sd	s1,40(sp)
    800010b4:	ec4e                	sd	s3,24(sp)
  np->sz = p->sz;
    800010b6:	048ab783          	ld	a5,72(s5)
    800010ba:	04fa3423          	sd	a5,72(s4)
  *(np->trapframe) = *(p->trapframe);
    800010be:	058ab683          	ld	a3,88(s5)
    800010c2:	87b6                	mv	a5,a3
    800010c4:	058a3703          	ld	a4,88(s4)
    800010c8:	12068693          	addi	a3,a3,288
    800010cc:	0007b803          	ld	a6,0(a5) # 1000 <_entry-0x7ffff000>
    800010d0:	6788                	ld	a0,8(a5)
    800010d2:	6b8c                	ld	a1,16(a5)
    800010d4:	6f90                	ld	a2,24(a5)
    800010d6:	01073023          	sd	a6,0(a4)
    800010da:	e708                	sd	a0,8(a4)
    800010dc:	eb0c                	sd	a1,16(a4)
    800010de:	ef10                	sd	a2,24(a4)
    800010e0:	02078793          	addi	a5,a5,32
    800010e4:	02070713          	addi	a4,a4,32
    800010e8:	fed792e3          	bne	a5,a3,800010cc <fork+0x4a>
  np->trapframe->a0 = 0;
    800010ec:	058a3783          	ld	a5,88(s4)
    800010f0:	0607b823          	sd	zero,112(a5)
  for(i = 0; i < NOFILE; i++)
    800010f4:	0d0a8493          	addi	s1,s5,208
    800010f8:	0d0a0913          	addi	s2,s4,208
    800010fc:	150a8993          	addi	s3,s5,336
    80001100:	a831                	j	8000111c <fork+0x9a>
    freeproc(np);
    80001102:	8552                	mv	a0,s4
    80001104:	dcbff0ef          	jal	80000ece <freeproc>
    release(&np->lock);
    80001108:	8552                	mv	a0,s4
    8000110a:	15f040ef          	jal	80005a68 <release>
    return -1;
    8000110e:	597d                	li	s2,-1
    80001110:	6a42                	ld	s4,16(sp)
    80001112:	a0b5                	j	8000117e <fork+0xfc>
  for(i = 0; i < NOFILE; i++)
    80001114:	04a1                	addi	s1,s1,8
    80001116:	0921                	addi	s2,s2,8
    80001118:	01348963          	beq	s1,s3,8000112a <fork+0xa8>
    if(p->ofile[i])
    8000111c:	6088                	ld	a0,0(s1)
    8000111e:	d97d                	beqz	a0,80001114 <fork+0x92>
      np->ofile[i] = filedup(p->ofile[i]);
    80001120:	2aa020ef          	jal	800033ca <filedup>
    80001124:	00a93023          	sd	a0,0(s2)
    80001128:	b7f5                	j	80001114 <fork+0x92>
  np->cwd = idup(p->cwd);
    8000112a:	150ab503          	ld	a0,336(s5)
    8000112e:	54c010ef          	jal	8000267a <idup>
    80001132:	14aa3823          	sd	a0,336(s4)
  safestrcpy(np->name, p->name, sizeof(p->name));
    80001136:	4641                	li	a2,16
    80001138:	158a8593          	addi	a1,s5,344
    8000113c:	158a0513          	addi	a0,s4,344
    80001140:	960ff0ef          	jal	800002a0 <safestrcpy>
  pid = np->pid;
    80001144:	030a2903          	lw	s2,48(s4)
  release(&np->lock);
    80001148:	8552                	mv	a0,s4
    8000114a:	11f040ef          	jal	80005a68 <release>
  acquire(&wait_lock);
    8000114e:	00007497          	auipc	s1,0x7
    80001152:	80a48493          	addi	s1,s1,-2038 # 80007958 <wait_lock>
    80001156:	8526                	mv	a0,s1
    80001158:	07d040ef          	jal	800059d4 <acquire>
  np->parent = p;
    8000115c:	035a3c23          	sd	s5,56(s4)
  release(&wait_lock);
    80001160:	8526                	mv	a0,s1
    80001162:	107040ef          	jal	80005a68 <release>
  acquire(&np->lock);
    80001166:	8552                	mv	a0,s4
    80001168:	06d040ef          	jal	800059d4 <acquire>
  np->state = RUNNABLE;
    8000116c:	478d                	li	a5,3
    8000116e:	00fa2c23          	sw	a5,24(s4)
  release(&np->lock);
    80001172:	8552                	mv	a0,s4
    80001174:	0f5040ef          	jal	80005a68 <release>
  return pid;
    80001178:	74a2                	ld	s1,40(sp)
    8000117a:	69e2                	ld	s3,24(sp)
    8000117c:	6a42                	ld	s4,16(sp)
}
    8000117e:	854a                	mv	a0,s2
    80001180:	70e2                	ld	ra,56(sp)
    80001182:	7442                	ld	s0,48(sp)
    80001184:	7902                	ld	s2,32(sp)
    80001186:	6aa2                	ld	s5,8(sp)
    80001188:	6121                	addi	sp,sp,64
    8000118a:	8082                	ret
    return -1;
    8000118c:	597d                	li	s2,-1
    8000118e:	bfc5                	j	8000117e <fork+0xfc>

0000000080001190 <scheduler>:
{
    80001190:	715d                	addi	sp,sp,-80
    80001192:	e486                	sd	ra,72(sp)
    80001194:	e0a2                	sd	s0,64(sp)
    80001196:	fc26                	sd	s1,56(sp)
    80001198:	f84a                	sd	s2,48(sp)
    8000119a:	f44e                	sd	s3,40(sp)
    8000119c:	f052                	sd	s4,32(sp)
    8000119e:	ec56                	sd	s5,24(sp)
    800011a0:	e85a                	sd	s6,16(sp)
    800011a2:	e45e                	sd	s7,8(sp)
    800011a4:	0880                	addi	s0,sp,80
    800011a6:	8792                	mv	a5,tp
  int id = r_tp();
    800011a8:	2781                	sext.w	a5,a5
  c->proc = 0;
    800011aa:	00779b13          	slli	s6,a5,0x7
    800011ae:	00006717          	auipc	a4,0x6
    800011b2:	79270713          	addi	a4,a4,1938 # 80007940 <pid_lock>
    800011b6:	975a                	add	a4,a4,s6
    800011b8:	02073823          	sd	zero,48(a4)
        swtch(&c->context, &p->context);
    800011bc:	00006717          	auipc	a4,0x6
    800011c0:	7bc70713          	addi	a4,a4,1980 # 80007978 <cpus+0x8>
    800011c4:	9b3a                	add	s6,s6,a4
      if(p->state == RUNNABLE) {
    800011c6:	4a0d                	li	s4,3
        p->state = RUNNING;
    800011c8:	4b91                	li	s7,4
        c->proc = p;
    800011ca:	079e                	slli	a5,a5,0x7
    800011cc:	00006a97          	auipc	s5,0x6
    800011d0:	774a8a93          	addi	s5,s5,1908 # 80007940 <pid_lock>
    800011d4:	9abe                	add	s5,s5,a5
    800011d6:	a0a9                	j	80001220 <scheduler+0x90>
      release(&p->lock);
    800011d8:	8526                	mv	a0,s1
    800011da:	08f040ef          	jal	80005a68 <release>
    for(p = proc; p < &proc[NPROC]; p++) {
    800011de:	16848493          	addi	s1,s1,360
    800011e2:	03348663          	beq	s1,s3,8000120e <scheduler+0x7e>
      acquire(&p->lock);
    800011e6:	8526                	mv	a0,s1
    800011e8:	7ec040ef          	jal	800059d4 <acquire>
      if(p->state != UNUSED) {
    800011ec:	4c9c                	lw	a5,24(s1)
    800011ee:	d7ed                	beqz	a5,800011d8 <scheduler+0x48>
        nproc++;
    800011f0:	2905                	addiw	s2,s2,1
      if(p->state == RUNNABLE) {
    800011f2:	ff4793e3          	bne	a5,s4,800011d8 <scheduler+0x48>
        p->state = RUNNING;
    800011f6:	0174ac23          	sw	s7,24(s1)
        c->proc = p;
    800011fa:	029ab823          	sd	s1,48(s5)
        swtch(&c->context, &p->context);
    800011fe:	06048593          	addi	a1,s1,96
    80001202:	855a                	mv	a0,s6
    80001204:	5aa000ef          	jal	800017ae <swtch>
        c->proc = 0;
    80001208:	020ab823          	sd	zero,48(s5)
    8000120c:	b7f1                	j	800011d8 <scheduler+0x48>
    if(nproc <= 2) {   // only init and sh exist
    8000120e:	4789                	li	a5,2
    80001210:	0127c863          	blt	a5,s2,80001220 <scheduler+0x90>
  asm volatile("csrr %0, sstatus" : "=r" (x) );
    80001214:	100027f3          	csrr	a5,sstatus
  w_sstatus(r_sstatus() | SSTATUS_SIE);
    80001218:	0027e793          	ori	a5,a5,2
  asm volatile("csrw sstatus, %0" : : "r" (x));
    8000121c:	10079073          	csrw	sstatus,a5
  asm volatile("csrr %0, sstatus" : "=r" (x) );
    80001220:	100027f3          	csrr	a5,sstatus
  w_sstatus(r_sstatus() | SSTATUS_SIE);
    80001224:	0027e793          	ori	a5,a5,2
  asm volatile("csrw sstatus, %0" : : "r" (x));
    80001228:	10079073          	csrw	sstatus,a5
    int nproc = 0;
    8000122c:	4901                	li	s2,0
    for(p = proc; p < &proc[NPROC]; p++) {
    8000122e:	00007497          	auipc	s1,0x7
    80001232:	b4248493          	addi	s1,s1,-1214 # 80007d70 <proc>
    80001236:	00008997          	auipc	s3,0x8
    8000123a:	94a98993          	addi	s3,s3,-1718 # 80008b80 <tickslock>
    8000123e:	b765                	j	800011e6 <scheduler+0x56>

0000000080001240 <sched>:
{
    80001240:	7179                	addi	sp,sp,-48
    80001242:	f406                	sd	ra,40(sp)
    80001244:	f022                	sd	s0,32(sp)
    80001246:	ec26                	sd	s1,24(sp)
    80001248:	e84a                	sd	s2,16(sp)
    8000124a:	e44e                	sd	s3,8(sp)
    8000124c:	1800                	addi	s0,sp,48
  struct proc *p = myproc();
    8000124e:	b0fff0ef          	jal	80000d5c <myproc>
    80001252:	84aa                	mv	s1,a0
  if(!holding(&p->lock))
    80001254:	716040ef          	jal	8000596a <holding>
    80001258:	c92d                	beqz	a0,800012ca <sched+0x8a>
  asm volatile("mv %0, tp" : "=r" (x) );
    8000125a:	8792                	mv	a5,tp
  if(mycpu()->noff != 1)
    8000125c:	2781                	sext.w	a5,a5
    8000125e:	079e                	slli	a5,a5,0x7
    80001260:	00006717          	auipc	a4,0x6
    80001264:	6e070713          	addi	a4,a4,1760 # 80007940 <pid_lock>
    80001268:	97ba                	add	a5,a5,a4
    8000126a:	0a87a703          	lw	a4,168(a5)
    8000126e:	4785                	li	a5,1
    80001270:	06f71363          	bne	a4,a5,800012d6 <sched+0x96>
  if(p->state == RUNNING)
    80001274:	4c98                	lw	a4,24(s1)
    80001276:	4791                	li	a5,4
    80001278:	06f70563          	beq	a4,a5,800012e2 <sched+0xa2>
  asm volatile("csrr %0, sstatus" : "=r" (x) );
    8000127c:	100027f3          	csrr	a5,sstatus
  return (x & SSTATUS_SIE) != 0;
    80001280:	8b89                	andi	a5,a5,2
  if(intr_get())
    80001282:	e7b5                	bnez	a5,800012ee <sched+0xae>
  asm volatile("mv %0, tp" : "=r" (x) );
    80001284:	8792                	mv	a5,tp
  intena = mycpu()->intena;
    80001286:	00006917          	auipc	s2,0x6
    8000128a:	6ba90913          	addi	s2,s2,1722 # 80007940 <pid_lock>
    8000128e:	2781                	sext.w	a5,a5
    80001290:	079e                	slli	a5,a5,0x7
    80001292:	97ca                	add	a5,a5,s2
    80001294:	0ac7a983          	lw	s3,172(a5)
    80001298:	8792                	mv	a5,tp
  swtch(&p->context, &mycpu()->context);
    8000129a:	2781                	sext.w	a5,a5
    8000129c:	079e                	slli	a5,a5,0x7
    8000129e:	00006597          	auipc	a1,0x6
    800012a2:	6da58593          	addi	a1,a1,1754 # 80007978 <cpus+0x8>
    800012a6:	95be                	add	a1,a1,a5
    800012a8:	06048513          	addi	a0,s1,96
    800012ac:	502000ef          	jal	800017ae <swtch>
    800012b0:	8792                	mv	a5,tp
  mycpu()->intena = intena;
    800012b2:	2781                	sext.w	a5,a5
    800012b4:	079e                	slli	a5,a5,0x7
    800012b6:	993e                	add	s2,s2,a5
    800012b8:	0b392623          	sw	s3,172(s2)
}
    800012bc:	70a2                	ld	ra,40(sp)
    800012be:	7402                	ld	s0,32(sp)
    800012c0:	64e2                	ld	s1,24(sp)
    800012c2:	6942                	ld	s2,16(sp)
    800012c4:	69a2                	ld	s3,8(sp)
    800012c6:	6145                	addi	sp,sp,48
    800012c8:	8082                	ret
    panic("sched p->lock");
    800012ca:	00006517          	auipc	a0,0x6
    800012ce:	f0e50513          	addi	a0,a0,-242 # 800071d8 <etext+0x1d8>
    800012d2:	3d4040ef          	jal	800056a6 <panic>
    panic("sched locks");
    800012d6:	00006517          	auipc	a0,0x6
    800012da:	f1250513          	addi	a0,a0,-238 # 800071e8 <etext+0x1e8>
    800012de:	3c8040ef          	jal	800056a6 <panic>
    panic("sched running");
    800012e2:	00006517          	auipc	a0,0x6
    800012e6:	f1650513          	addi	a0,a0,-234 # 800071f8 <etext+0x1f8>
    800012ea:	3bc040ef          	jal	800056a6 <panic>
    panic("sched interruptible");
    800012ee:	00006517          	auipc	a0,0x6
    800012f2:	f1a50513          	addi	a0,a0,-230 # 80007208 <etext+0x208>
    800012f6:	3b0040ef          	jal	800056a6 <panic>

00000000800012fa <yield>:
{
    800012fa:	1101                	addi	sp,sp,-32
    800012fc:	ec06                	sd	ra,24(sp)
    800012fe:	e822                	sd	s0,16(sp)
    80001300:	e426                	sd	s1,8(sp)
    80001302:	1000                	addi	s0,sp,32
  struct proc *p = myproc();
    80001304:	a59ff0ef          	jal	80000d5c <myproc>
    80001308:	84aa                	mv	s1,a0
  acquire(&p->lock);
    8000130a:	6ca040ef          	jal	800059d4 <acquire>
  p->state = RUNNABLE;
    8000130e:	478d                	li	a5,3
    80001310:	cc9c                	sw	a5,24(s1)
  sched();
    80001312:	f2fff0ef          	jal	80001240 <sched>
  release(&p->lock);
    80001316:	8526                	mv	a0,s1
    80001318:	750040ef          	jal	80005a68 <release>
}
    8000131c:	60e2                	ld	ra,24(sp)
    8000131e:	6442                	ld	s0,16(sp)
    80001320:	64a2                	ld	s1,8(sp)
    80001322:	6105                	addi	sp,sp,32
    80001324:	8082                	ret

0000000080001326 <sleep>:

// Atomically release lock and sleep on chan.
// Reacquires lock when awakened.
void
sleep(void *chan, struct spinlock *lk)
{
    80001326:	7179                	addi	sp,sp,-48
    80001328:	f406                	sd	ra,40(sp)
    8000132a:	f022                	sd	s0,32(sp)
    8000132c:	ec26                	sd	s1,24(sp)
    8000132e:	e84a                	sd	s2,16(sp)
    80001330:	e44e                	sd	s3,8(sp)
    80001332:	1800                	addi	s0,sp,48
    80001334:	89aa                	mv	s3,a0
    80001336:	892e                	mv	s2,a1
  struct proc *p = myproc();
    80001338:	a25ff0ef          	jal	80000d5c <myproc>
    8000133c:	84aa                	mv	s1,a0
  // Once we hold p->lock, we can be
  // guaranteed that we won't miss any wakeup
  // (wakeup locks p->lock),
  // so it's okay to release lk.

  acquire(&p->lock);  //DOC: sleeplock1
    8000133e:	696040ef          	jal	800059d4 <acquire>
  release(lk);
    80001342:	854a                	mv	a0,s2
    80001344:	724040ef          	jal	80005a68 <release>

  // Go to sleep.
  p->chan = chan;
    80001348:	0334b023          	sd	s3,32(s1)
  p->state = SLEEPING;
    8000134c:	4789                	li	a5,2
    8000134e:	cc9c                	sw	a5,24(s1)

  sched();
    80001350:	ef1ff0ef          	jal	80001240 <sched>

  // Tidy up.
  p->chan = 0;
    80001354:	0204b023          	sd	zero,32(s1)

  // Reacquire original lock.
  release(&p->lock);
    80001358:	8526                	mv	a0,s1
    8000135a:	70e040ef          	jal	80005a68 <release>
  acquire(lk);
    8000135e:	854a                	mv	a0,s2
    80001360:	674040ef          	jal	800059d4 <acquire>
}
    80001364:	70a2                	ld	ra,40(sp)
    80001366:	7402                	ld	s0,32(sp)
    80001368:	64e2                	ld	s1,24(sp)
    8000136a:	6942                	ld	s2,16(sp)
    8000136c:	69a2                	ld	s3,8(sp)
    8000136e:	6145                	addi	sp,sp,48
    80001370:	8082                	ret

0000000080001372 <wakeup>:

// Wake up all processes sleeping on chan.
// Must be called without any p->lock.
void
wakeup(void *chan)
{
    80001372:	7179                	addi	sp,sp,-48
    80001374:	f406                	sd	ra,40(sp)
    80001376:	f022                	sd	s0,32(sp)
    80001378:	ec26                	sd	s1,24(sp)
    8000137a:	e84a                	sd	s2,16(sp)
    8000137c:	e44e                	sd	s3,8(sp)
    8000137e:	e052                	sd	s4,0(sp)
    80001380:	1800                	addi	s0,sp,48
    80001382:	8a2a                	mv	s4,a0
  struct proc *p;

  for(p = proc; p < &proc[NPROC]; p++) {
    80001384:	00007497          	auipc	s1,0x7
    80001388:	9ec48493          	addi	s1,s1,-1556 # 80007d70 <proc>
    if(p != myproc()){
      acquire(&p->lock);
      if(p->state == SLEEPING && p->chan == chan) {
    8000138c:	4989                	li	s3,2
  for(p = proc; p < &proc[NPROC]; p++) {
    8000138e:	00007917          	auipc	s2,0x7
    80001392:	7f290913          	addi	s2,s2,2034 # 80008b80 <tickslock>
    80001396:	a801                	j	800013a6 <wakeup+0x34>
        p->state = RUNNABLE;
      }
      release(&p->lock);
    80001398:	8526                	mv	a0,s1
    8000139a:	6ce040ef          	jal	80005a68 <release>
  for(p = proc; p < &proc[NPROC]; p++) {
    8000139e:	16848493          	addi	s1,s1,360
    800013a2:	03248263          	beq	s1,s2,800013c6 <wakeup+0x54>
    if(p != myproc()){
    800013a6:	9b7ff0ef          	jal	80000d5c <myproc>
    800013aa:	fea48ae3          	beq	s1,a0,8000139e <wakeup+0x2c>
      acquire(&p->lock);
    800013ae:	8526                	mv	a0,s1
    800013b0:	624040ef          	jal	800059d4 <acquire>
      if(p->state == SLEEPING && p->chan == chan) {
    800013b4:	4c9c                	lw	a5,24(s1)
    800013b6:	ff3791e3          	bne	a5,s3,80001398 <wakeup+0x26>
    800013ba:	709c                	ld	a5,32(s1)
    800013bc:	fd479ee3          	bne	a5,s4,80001398 <wakeup+0x26>
        p->state = RUNNABLE;
    800013c0:	478d                	li	a5,3
    800013c2:	cc9c                	sw	a5,24(s1)
    800013c4:	bfd1                	j	80001398 <wakeup+0x26>
    }
  }
}
    800013c6:	70a2                	ld	ra,40(sp)
    800013c8:	7402                	ld	s0,32(sp)
    800013ca:	64e2                	ld	s1,24(sp)
    800013cc:	6942                	ld	s2,16(sp)
    800013ce:	69a2                	ld	s3,8(sp)
    800013d0:	6a02                	ld	s4,0(sp)
    800013d2:	6145                	addi	sp,sp,48
    800013d4:	8082                	ret

00000000800013d6 <reparent>:
{
    800013d6:	7179                	addi	sp,sp,-48
    800013d8:	f406                	sd	ra,40(sp)
    800013da:	f022                	sd	s0,32(sp)
    800013dc:	ec26                	sd	s1,24(sp)
    800013de:	e84a                	sd	s2,16(sp)
    800013e0:	e44e                	sd	s3,8(sp)
    800013e2:	e052                	sd	s4,0(sp)
    800013e4:	1800                	addi	s0,sp,48
    800013e6:	892a                	mv	s2,a0
  for(pp = proc; pp < &proc[NPROC]; pp++){
    800013e8:	00007497          	auipc	s1,0x7
    800013ec:	98848493          	addi	s1,s1,-1656 # 80007d70 <proc>
      pp->parent = initproc;
    800013f0:	00006a17          	auipc	s4,0x6
    800013f4:	510a0a13          	addi	s4,s4,1296 # 80007900 <initproc>
  for(pp = proc; pp < &proc[NPROC]; pp++){
    800013f8:	00007997          	auipc	s3,0x7
    800013fc:	78898993          	addi	s3,s3,1928 # 80008b80 <tickslock>
    80001400:	a029                	j	8000140a <reparent+0x34>
    80001402:	16848493          	addi	s1,s1,360
    80001406:	01348b63          	beq	s1,s3,8000141c <reparent+0x46>
    if(pp->parent == p){
    8000140a:	7c9c                	ld	a5,56(s1)
    8000140c:	ff279be3          	bne	a5,s2,80001402 <reparent+0x2c>
      pp->parent = initproc;
    80001410:	000a3503          	ld	a0,0(s4)
    80001414:	fc88                	sd	a0,56(s1)
      wakeup(initproc);
    80001416:	f5dff0ef          	jal	80001372 <wakeup>
    8000141a:	b7e5                	j	80001402 <reparent+0x2c>
}
    8000141c:	70a2                	ld	ra,40(sp)
    8000141e:	7402                	ld	s0,32(sp)
    80001420:	64e2                	ld	s1,24(sp)
    80001422:	6942                	ld	s2,16(sp)
    80001424:	69a2                	ld	s3,8(sp)
    80001426:	6a02                	ld	s4,0(sp)
    80001428:	6145                	addi	sp,sp,48
    8000142a:	8082                	ret

000000008000142c <exit>:
{
    8000142c:	7179                	addi	sp,sp,-48
    8000142e:	f406                	sd	ra,40(sp)
    80001430:	f022                	sd	s0,32(sp)
    80001432:	ec26                	sd	s1,24(sp)
    80001434:	e84a                	sd	s2,16(sp)
    80001436:	e44e                	sd	s3,8(sp)
    80001438:	e052                	sd	s4,0(sp)
    8000143a:	1800                	addi	s0,sp,48
    8000143c:	8a2a                	mv	s4,a0
  struct proc *p = myproc();
    8000143e:	91fff0ef          	jal	80000d5c <myproc>
    80001442:	89aa                	mv	s3,a0
  if(p == initproc)
    80001444:	00006797          	auipc	a5,0x6
    80001448:	4bc7b783          	ld	a5,1212(a5) # 80007900 <initproc>
    8000144c:	0d050493          	addi	s1,a0,208
    80001450:	15050913          	addi	s2,a0,336
    80001454:	00a79b63          	bne	a5,a0,8000146a <exit+0x3e>
    panic("init exiting");
    80001458:	00006517          	auipc	a0,0x6
    8000145c:	dc850513          	addi	a0,a0,-568 # 80007220 <etext+0x220>
    80001460:	246040ef          	jal	800056a6 <panic>
  for(int fd = 0; fd < NOFILE; fd++){
    80001464:	04a1                	addi	s1,s1,8
    80001466:	01248963          	beq	s1,s2,80001478 <exit+0x4c>
    if(p->ofile[fd]){
    8000146a:	6088                	ld	a0,0(s1)
    8000146c:	dd65                	beqz	a0,80001464 <exit+0x38>
      fileclose(f);
    8000146e:	7a3010ef          	jal	80003410 <fileclose>
      p->ofile[fd] = 0;
    80001472:	0004b023          	sd	zero,0(s1)
    80001476:	b7fd                	j	80001464 <exit+0x38>
  begin_op();
    80001478:	379010ef          	jal	80002ff0 <begin_op>
  iput(p->cwd);
    8000147c:	1509b503          	ld	a0,336(s3)
    80001480:	43e010ef          	jal	800028be <iput>
  end_op();
    80001484:	3d7010ef          	jal	8000305a <end_op>
  p->cwd = 0;
    80001488:	1409b823          	sd	zero,336(s3)
  acquire(&wait_lock);
    8000148c:	00006497          	auipc	s1,0x6
    80001490:	4cc48493          	addi	s1,s1,1228 # 80007958 <wait_lock>
    80001494:	8526                	mv	a0,s1
    80001496:	53e040ef          	jal	800059d4 <acquire>
  reparent(p);
    8000149a:	854e                	mv	a0,s3
    8000149c:	f3bff0ef          	jal	800013d6 <reparent>
  wakeup(p->parent);
    800014a0:	0389b503          	ld	a0,56(s3)
    800014a4:	ecfff0ef          	jal	80001372 <wakeup>
  acquire(&p->lock);
    800014a8:	854e                	mv	a0,s3
    800014aa:	52a040ef          	jal	800059d4 <acquire>
  p->xstate = status;
    800014ae:	0349a623          	sw	s4,44(s3)
  p->state = ZOMBIE;
    800014b2:	4795                	li	a5,5
    800014b4:	00f9ac23          	sw	a5,24(s3)
  release(&wait_lock);
    800014b8:	8526                	mv	a0,s1
    800014ba:	5ae040ef          	jal	80005a68 <release>
  sched();
    800014be:	d83ff0ef          	jal	80001240 <sched>
  panic("zombie exit");
    800014c2:	00006517          	auipc	a0,0x6
    800014c6:	d6e50513          	addi	a0,a0,-658 # 80007230 <etext+0x230>
    800014ca:	1dc040ef          	jal	800056a6 <panic>

00000000800014ce <kill>:
// Kill the process with the given pid.
// The victim won't exit until it tries to return
// to user space (see usertrap() in trap.c).
int
kill(int pid)
{
    800014ce:	7179                	addi	sp,sp,-48
    800014d0:	f406                	sd	ra,40(sp)
    800014d2:	f022                	sd	s0,32(sp)
    800014d4:	ec26                	sd	s1,24(sp)
    800014d6:	e84a                	sd	s2,16(sp)
    800014d8:	e44e                	sd	s3,8(sp)
    800014da:	1800                	addi	s0,sp,48
    800014dc:	892a                	mv	s2,a0
  struct proc *p;

  for(p = proc; p < &proc[NPROC]; p++){
    800014de:	00007497          	auipc	s1,0x7
    800014e2:	89248493          	addi	s1,s1,-1902 # 80007d70 <proc>
    800014e6:	00007997          	auipc	s3,0x7
    800014ea:	69a98993          	addi	s3,s3,1690 # 80008b80 <tickslock>
    acquire(&p->lock);
    800014ee:	8526                	mv	a0,s1
    800014f0:	4e4040ef          	jal	800059d4 <acquire>
    if(p->pid == pid){
    800014f4:	589c                	lw	a5,48(s1)
    800014f6:	03278163          	beq	a5,s2,80001518 <kill+0x4a>
        p->state = RUNNABLE;
      }
      release(&p->lock);
      return 0;
    }
    release(&p->lock);
    800014fa:	8526                	mv	a0,s1
    800014fc:	56c040ef          	jal	80005a68 <release>
  for(p = proc; p < &proc[NPROC]; p++){
    80001500:	16848493          	addi	s1,s1,360
    80001504:	ff3495e3          	bne	s1,s3,800014ee <kill+0x20>
  }
  return -1;
    80001508:	557d                	li	a0,-1
}
    8000150a:	70a2                	ld	ra,40(sp)
    8000150c:	7402                	ld	s0,32(sp)
    8000150e:	64e2                	ld	s1,24(sp)
    80001510:	6942                	ld	s2,16(sp)
    80001512:	69a2                	ld	s3,8(sp)
    80001514:	6145                	addi	sp,sp,48
    80001516:	8082                	ret
      p->killed = 1;
    80001518:	4785                	li	a5,1
    8000151a:	d49c                	sw	a5,40(s1)
      if(p->state == SLEEPING){
    8000151c:	4c98                	lw	a4,24(s1)
    8000151e:	4789                	li	a5,2
    80001520:	00f70763          	beq	a4,a5,8000152e <kill+0x60>
      release(&p->lock);
    80001524:	8526                	mv	a0,s1
    80001526:	542040ef          	jal	80005a68 <release>
      return 0;
    8000152a:	4501                	li	a0,0
    8000152c:	bff9                	j	8000150a <kill+0x3c>
        p->state = RUNNABLE;
    8000152e:	478d                	li	a5,3
    80001530:	cc9c                	sw	a5,24(s1)
    80001532:	bfcd                	j	80001524 <kill+0x56>

0000000080001534 <setkilled>:

void
setkilled(struct proc *p)
{
    80001534:	1101                	addi	sp,sp,-32
    80001536:	ec06                	sd	ra,24(sp)
    80001538:	e822                	sd	s0,16(sp)
    8000153a:	e426                	sd	s1,8(sp)
    8000153c:	1000                	addi	s0,sp,32
    8000153e:	84aa                	mv	s1,a0
  acquire(&p->lock);
    80001540:	494040ef          	jal	800059d4 <acquire>
  p->killed = 1;
    80001544:	4785                	li	a5,1
    80001546:	d49c                	sw	a5,40(s1)
  release(&p->lock);
    80001548:	8526                	mv	a0,s1
    8000154a:	51e040ef          	jal	80005a68 <release>
}
    8000154e:	60e2                	ld	ra,24(sp)
    80001550:	6442                	ld	s0,16(sp)
    80001552:	64a2                	ld	s1,8(sp)
    80001554:	6105                	addi	sp,sp,32
    80001556:	8082                	ret

0000000080001558 <killed>:

int
killed(struct proc *p)
{
    80001558:	1101                	addi	sp,sp,-32
    8000155a:	ec06                	sd	ra,24(sp)
    8000155c:	e822                	sd	s0,16(sp)
    8000155e:	e426                	sd	s1,8(sp)
    80001560:	e04a                	sd	s2,0(sp)
    80001562:	1000                	addi	s0,sp,32
    80001564:	84aa                	mv	s1,a0
  int k;
  
  acquire(&p->lock);
    80001566:	46e040ef          	jal	800059d4 <acquire>
  k = p->killed;
    8000156a:	0284a903          	lw	s2,40(s1)
  release(&p->lock);
    8000156e:	8526                	mv	a0,s1
    80001570:	4f8040ef          	jal	80005a68 <release>
  return k;
}
    80001574:	854a                	mv	a0,s2
    80001576:	60e2                	ld	ra,24(sp)
    80001578:	6442                	ld	s0,16(sp)
    8000157a:	64a2                	ld	s1,8(sp)
    8000157c:	6902                	ld	s2,0(sp)
    8000157e:	6105                	addi	sp,sp,32
    80001580:	8082                	ret

0000000080001582 <wait>:
{
    80001582:	715d                	addi	sp,sp,-80
    80001584:	e486                	sd	ra,72(sp)
    80001586:	e0a2                	sd	s0,64(sp)
    80001588:	fc26                	sd	s1,56(sp)
    8000158a:	f84a                	sd	s2,48(sp)
    8000158c:	f44e                	sd	s3,40(sp)
    8000158e:	f052                	sd	s4,32(sp)
    80001590:	ec56                	sd	s5,24(sp)
    80001592:	e85a                	sd	s6,16(sp)
    80001594:	e45e                	sd	s7,8(sp)
    80001596:	0880                	addi	s0,sp,80
    80001598:	8baa                	mv	s7,a0
  struct proc *p = myproc();
    8000159a:	fc2ff0ef          	jal	80000d5c <myproc>
    8000159e:	892a                	mv	s2,a0
  acquire(&wait_lock);
    800015a0:	00006517          	auipc	a0,0x6
    800015a4:	3b850513          	addi	a0,a0,952 # 80007958 <wait_lock>
    800015a8:	42c040ef          	jal	800059d4 <acquire>
        if(pp->state == ZOMBIE){
    800015ac:	4a15                	li	s4,5
        havekids = 1;
    800015ae:	4a85                	li	s5,1
    for(pp = proc; pp < &proc[NPROC]; pp++){
    800015b0:	00007997          	auipc	s3,0x7
    800015b4:	5d098993          	addi	s3,s3,1488 # 80008b80 <tickslock>
    sleep(p, &wait_lock);  //DOC: wait-sleep
    800015b8:	00006b17          	auipc	s6,0x6
    800015bc:	3a0b0b13          	addi	s6,s6,928 # 80007958 <wait_lock>
    800015c0:	a869                	j	8000165a <wait+0xd8>
          pid = pp->pid;
    800015c2:	0304a983          	lw	s3,48(s1)
          if(addr != 0 && copyout(p->pagetable, addr, (char *)&pp->xstate,
    800015c6:	000b8c63          	beqz	s7,800015de <wait+0x5c>
    800015ca:	4691                	li	a3,4
    800015cc:	02c48613          	addi	a2,s1,44
    800015d0:	85de                	mv	a1,s7
    800015d2:	05093503          	ld	a0,80(s2)
    800015d6:	c2eff0ef          	jal	80000a04 <copyout>
    800015da:	02054a63          	bltz	a0,8000160e <wait+0x8c>
          freeproc(pp);
    800015de:	8526                	mv	a0,s1
    800015e0:	8efff0ef          	jal	80000ece <freeproc>
          release(&pp->lock);
    800015e4:	8526                	mv	a0,s1
    800015e6:	482040ef          	jal	80005a68 <release>
          release(&wait_lock);
    800015ea:	00006517          	auipc	a0,0x6
    800015ee:	36e50513          	addi	a0,a0,878 # 80007958 <wait_lock>
    800015f2:	476040ef          	jal	80005a68 <release>
}
    800015f6:	854e                	mv	a0,s3
    800015f8:	60a6                	ld	ra,72(sp)
    800015fa:	6406                	ld	s0,64(sp)
    800015fc:	74e2                	ld	s1,56(sp)
    800015fe:	7942                	ld	s2,48(sp)
    80001600:	79a2                	ld	s3,40(sp)
    80001602:	7a02                	ld	s4,32(sp)
    80001604:	6ae2                	ld	s5,24(sp)
    80001606:	6b42                	ld	s6,16(sp)
    80001608:	6ba2                	ld	s7,8(sp)
    8000160a:	6161                	addi	sp,sp,80
    8000160c:	8082                	ret
            release(&pp->lock);
    8000160e:	8526                	mv	a0,s1
    80001610:	458040ef          	jal	80005a68 <release>
            release(&wait_lock);
    80001614:	00006517          	auipc	a0,0x6
    80001618:	34450513          	addi	a0,a0,836 # 80007958 <wait_lock>
    8000161c:	44c040ef          	jal	80005a68 <release>
            return -1;
    80001620:	59fd                	li	s3,-1
    80001622:	bfd1                	j	800015f6 <wait+0x74>
    for(pp = proc; pp < &proc[NPROC]; pp++){
    80001624:	16848493          	addi	s1,s1,360
    80001628:	03348063          	beq	s1,s3,80001648 <wait+0xc6>
      if(pp->parent == p){
    8000162c:	7c9c                	ld	a5,56(s1)
    8000162e:	ff279be3          	bne	a5,s2,80001624 <wait+0xa2>
        acquire(&pp->lock);
    80001632:	8526                	mv	a0,s1
    80001634:	3a0040ef          	jal	800059d4 <acquire>
        if(pp->state == ZOMBIE){
    80001638:	4c9c                	lw	a5,24(s1)
    8000163a:	f94784e3          	beq	a5,s4,800015c2 <wait+0x40>
        release(&pp->lock);
    8000163e:	8526                	mv	a0,s1
    80001640:	428040ef          	jal	80005a68 <release>
        havekids = 1;
    80001644:	8756                	mv	a4,s5
    80001646:	bff9                	j	80001624 <wait+0xa2>
    if(!havekids || killed(p)){
    80001648:	cf19                	beqz	a4,80001666 <wait+0xe4>
    8000164a:	854a                	mv	a0,s2
    8000164c:	f0dff0ef          	jal	80001558 <killed>
    80001650:	e919                	bnez	a0,80001666 <wait+0xe4>
    sleep(p, &wait_lock);  //DOC: wait-sleep
    80001652:	85da                	mv	a1,s6
    80001654:	854a                	mv	a0,s2
    80001656:	cd1ff0ef          	jal	80001326 <sleep>
    havekids = 0;
    8000165a:	4701                	li	a4,0
    for(pp = proc; pp < &proc[NPROC]; pp++){
    8000165c:	00006497          	auipc	s1,0x6
    80001660:	71448493          	addi	s1,s1,1812 # 80007d70 <proc>
    80001664:	b7e1                	j	8000162c <wait+0xaa>
      release(&wait_lock);
    80001666:	00006517          	auipc	a0,0x6
    8000166a:	2f250513          	addi	a0,a0,754 # 80007958 <wait_lock>
    8000166e:	3fa040ef          	jal	80005a68 <release>
      return -1;
    80001672:	59fd                	li	s3,-1
    80001674:	b749                	j	800015f6 <wait+0x74>

0000000080001676 <either_copyout>:
// Copy to either a user address, or kernel address,
// depending on usr_dst.
// Returns 0 on success, -1 on error.
int
either_copyout(int user_dst, uint64 dst, void *src, uint64 len)
{
    80001676:	7179                	addi	sp,sp,-48
    80001678:	f406                	sd	ra,40(sp)
    8000167a:	f022                	sd	s0,32(sp)
    8000167c:	ec26                	sd	s1,24(sp)
    8000167e:	e84a                	sd	s2,16(sp)
    80001680:	e44e                	sd	s3,8(sp)
    80001682:	e052                	sd	s4,0(sp)
    80001684:	1800                	addi	s0,sp,48
    80001686:	84aa                	mv	s1,a0
    80001688:	892e                	mv	s2,a1
    8000168a:	89b2                	mv	s3,a2
    8000168c:	8a36                	mv	s4,a3
  struct proc *p = myproc();
    8000168e:	eceff0ef          	jal	80000d5c <myproc>
  if(user_dst){
    80001692:	cc99                	beqz	s1,800016b0 <either_copyout+0x3a>
    return copyout(p->pagetable, dst, src, len);
    80001694:	86d2                	mv	a3,s4
    80001696:	864e                	mv	a2,s3
    80001698:	85ca                	mv	a1,s2
    8000169a:	6928                	ld	a0,80(a0)
    8000169c:	b68ff0ef          	jal	80000a04 <copyout>
  } else {
    memmove((char *)dst, src, len);
    return 0;
  }
}
    800016a0:	70a2                	ld	ra,40(sp)
    800016a2:	7402                	ld	s0,32(sp)
    800016a4:	64e2                	ld	s1,24(sp)
    800016a6:	6942                	ld	s2,16(sp)
    800016a8:	69a2                	ld	s3,8(sp)
    800016aa:	6a02                	ld	s4,0(sp)
    800016ac:	6145                	addi	sp,sp,48
    800016ae:	8082                	ret
    memmove((char *)dst, src, len);
    800016b0:	000a061b          	sext.w	a2,s4
    800016b4:	85ce                	mv	a1,s3
    800016b6:	854a                	mv	a0,s2
    800016b8:	afbfe0ef          	jal	800001b2 <memmove>
    return 0;
    800016bc:	8526                	mv	a0,s1
    800016be:	b7cd                	j	800016a0 <either_copyout+0x2a>

00000000800016c0 <either_copyin>:
// Copy from either a user address, or kernel address,
// depending on usr_src.
// Returns 0 on success, -1 on error.
int
either_copyin(void *dst, int user_src, uint64 src, uint64 len)
{
    800016c0:	7179                	addi	sp,sp,-48
    800016c2:	f406                	sd	ra,40(sp)
    800016c4:	f022                	sd	s0,32(sp)
    800016c6:	ec26                	sd	s1,24(sp)
    800016c8:	e84a                	sd	s2,16(sp)
    800016ca:	e44e                	sd	s3,8(sp)
    800016cc:	e052                	sd	s4,0(sp)
    800016ce:	1800                	addi	s0,sp,48
    800016d0:	892a                	mv	s2,a0
    800016d2:	84ae                	mv	s1,a1
    800016d4:	89b2                	mv	s3,a2
    800016d6:	8a36                	mv	s4,a3
  struct proc *p = myproc();
    800016d8:	e84ff0ef          	jal	80000d5c <myproc>
  if(user_src){
    800016dc:	cc99                	beqz	s1,800016fa <either_copyin+0x3a>
    return copyin(p->pagetable, dst, src, len);
    800016de:	86d2                	mv	a3,s4
    800016e0:	864e                	mv	a2,s3
    800016e2:	85ca                	mv	a1,s2
    800016e4:	6928                	ld	a0,80(a0)
    800016e6:	bceff0ef          	jal	80000ab4 <copyin>
  } else {
    memmove(dst, (char*)src, len);
    return 0;
  }
}
    800016ea:	70a2                	ld	ra,40(sp)
    800016ec:	7402                	ld	s0,32(sp)
    800016ee:	64e2                	ld	s1,24(sp)
    800016f0:	6942                	ld	s2,16(sp)
    800016f2:	69a2                	ld	s3,8(sp)
    800016f4:	6a02                	ld	s4,0(sp)
    800016f6:	6145                	addi	sp,sp,48
    800016f8:	8082                	ret
    memmove(dst, (char*)src, len);
    800016fa:	000a061b          	sext.w	a2,s4
    800016fe:	85ce                	mv	a1,s3
    80001700:	854a                	mv	a0,s2
    80001702:	ab1fe0ef          	jal	800001b2 <memmove>
    return 0;
    80001706:	8526                	mv	a0,s1
    80001708:	b7cd                	j	800016ea <either_copyin+0x2a>

000000008000170a <procdump>:
// Print a process listing to console.  For debugging.
// Runs when user types ^P on console.
// No lock to avoid wedging a stuck machine further.
void
procdump(void)
{
    8000170a:	715d                	addi	sp,sp,-80
    8000170c:	e486                	sd	ra,72(sp)
    8000170e:	e0a2                	sd	s0,64(sp)
    80001710:	fc26                	sd	s1,56(sp)
    80001712:	f84a                	sd	s2,48(sp)
    80001714:	f44e                	sd	s3,40(sp)
    80001716:	f052                	sd	s4,32(sp)
    80001718:	ec56                	sd	s5,24(sp)
    8000171a:	e85a                	sd	s6,16(sp)
    8000171c:	e45e                	sd	s7,8(sp)
    8000171e:	0880                	addi	s0,sp,80
  [ZOMBIE]    "zombie"
  };
  struct proc *p;
  char *state;

  printf("\n");
    80001720:	00006517          	auipc	a0,0x6
    80001724:	8f850513          	addi	a0,a0,-1800 # 80007018 <etext+0x18>
    80001728:	4af030ef          	jal	800053d6 <printf>
  for(p = proc; p < &proc[NPROC]; p++){
    8000172c:	00006497          	auipc	s1,0x6
    80001730:	79c48493          	addi	s1,s1,1948 # 80007ec8 <proc+0x158>
    80001734:	00007917          	auipc	s2,0x7
    80001738:	5a490913          	addi	s2,s2,1444 # 80008cd8 <bcache+0x140>
    if(p->state == UNUSED)
      continue;
    if(p->state >= 0 && p->state < NELEM(states) && states[p->state])
    8000173c:	4b15                	li	s6,5
      state = states[p->state];
    else
      state = "???";
    8000173e:	00006997          	auipc	s3,0x6
    80001742:	b0298993          	addi	s3,s3,-1278 # 80007240 <etext+0x240>
    printf("%d %s %s", p->pid, state, p->name);
    80001746:	00006a97          	auipc	s5,0x6
    8000174a:	b02a8a93          	addi	s5,s5,-1278 # 80007248 <etext+0x248>
    printf("\n");
    8000174e:	00006a17          	auipc	s4,0x6
    80001752:	8caa0a13          	addi	s4,s4,-1846 # 80007018 <etext+0x18>
    if(p->state >= 0 && p->state < NELEM(states) && states[p->state])
    80001756:	00006b97          	auipc	s7,0x6
    8000175a:	032b8b93          	addi	s7,s7,50 # 80007788 <states.0>
    8000175e:	a829                	j	80001778 <procdump+0x6e>
    printf("%d %s %s", p->pid, state, p->name);
    80001760:	ed86a583          	lw	a1,-296(a3)
    80001764:	8556                	mv	a0,s5
    80001766:	471030ef          	jal	800053d6 <printf>
    printf("\n");
    8000176a:	8552                	mv	a0,s4
    8000176c:	46b030ef          	jal	800053d6 <printf>
  for(p = proc; p < &proc[NPROC]; p++){
    80001770:	16848493          	addi	s1,s1,360
    80001774:	03248263          	beq	s1,s2,80001798 <procdump+0x8e>
    if(p->state == UNUSED)
    80001778:	86a6                	mv	a3,s1
    8000177a:	ec04a783          	lw	a5,-320(s1)
    8000177e:	dbed                	beqz	a5,80001770 <procdump+0x66>
      state = "???";
    80001780:	864e                	mv	a2,s3
    if(p->state >= 0 && p->state < NELEM(states) && states[p->state])
    80001782:	fcfb6fe3          	bltu	s6,a5,80001760 <procdump+0x56>
    80001786:	02079713          	slli	a4,a5,0x20
    8000178a:	01d75793          	srli	a5,a4,0x1d
    8000178e:	97de                	add	a5,a5,s7
    80001790:	6390                	ld	a2,0(a5)
    80001792:	f679                	bnez	a2,80001760 <procdump+0x56>
      state = "???";
    80001794:	864e                	mv	a2,s3
    80001796:	b7e9                	j	80001760 <procdump+0x56>
  }
}
    80001798:	60a6                	ld	ra,72(sp)
    8000179a:	6406                	ld	s0,64(sp)
    8000179c:	74e2                	ld	s1,56(sp)
    8000179e:	7942                	ld	s2,48(sp)
    800017a0:	79a2                	ld	s3,40(sp)
    800017a2:	7a02                	ld	s4,32(sp)
    800017a4:	6ae2                	ld	s5,24(sp)
    800017a6:	6b42                	ld	s6,16(sp)
    800017a8:	6ba2                	ld	s7,8(sp)
    800017aa:	6161                	addi	sp,sp,80
    800017ac:	8082                	ret

00000000800017ae <swtch>:
    800017ae:	00153023          	sd	ra,0(a0)
    800017b2:	00253423          	sd	sp,8(a0)
    800017b6:	e900                	sd	s0,16(a0)
    800017b8:	ed04                	sd	s1,24(a0)
    800017ba:	03253023          	sd	s2,32(a0)
    800017be:	03353423          	sd	s3,40(a0)
    800017c2:	03453823          	sd	s4,48(a0)
    800017c6:	03553c23          	sd	s5,56(a0)
    800017ca:	05653023          	sd	s6,64(a0)
    800017ce:	05753423          	sd	s7,72(a0)
    800017d2:	05853823          	sd	s8,80(a0)
    800017d6:	05953c23          	sd	s9,88(a0)
    800017da:	07a53023          	sd	s10,96(a0)
    800017de:	07b53423          	sd	s11,104(a0)
    800017e2:	0005b083          	ld	ra,0(a1)
    800017e6:	0085b103          	ld	sp,8(a1)
    800017ea:	6980                	ld	s0,16(a1)
    800017ec:	6d84                	ld	s1,24(a1)
    800017ee:	0205b903          	ld	s2,32(a1)
    800017f2:	0285b983          	ld	s3,40(a1)
    800017f6:	0305ba03          	ld	s4,48(a1)
    800017fa:	0385ba83          	ld	s5,56(a1)
    800017fe:	0405bb03          	ld	s6,64(a1)
    80001802:	0485bb83          	ld	s7,72(a1)
    80001806:	0505bc03          	ld	s8,80(a1)
    8000180a:	0585bc83          	ld	s9,88(a1)
    8000180e:	0605bd03          	ld	s10,96(a1)
    80001812:	0685bd83          	ld	s11,104(a1)
    80001816:	8082                	ret

0000000080001818 <trapinit>:

extern int devintr();

void
trapinit(void)
{
    80001818:	1141                	addi	sp,sp,-16
    8000181a:	e406                	sd	ra,8(sp)
    8000181c:	e022                	sd	s0,0(sp)
    8000181e:	0800                	addi	s0,sp,16
  initlock(&tickslock, "time");
    80001820:	00006597          	auipc	a1,0x6
    80001824:	a6858593          	addi	a1,a1,-1432 # 80007288 <etext+0x288>
    80001828:	00007517          	auipc	a0,0x7
    8000182c:	35850513          	addi	a0,a0,856 # 80008b80 <tickslock>
    80001830:	120040ef          	jal	80005950 <initlock>
}
    80001834:	60a2                	ld	ra,8(sp)
    80001836:	6402                	ld	s0,0(sp)
    80001838:	0141                	addi	sp,sp,16
    8000183a:	8082                	ret

000000008000183c <trapinithart>:

// set up to take exceptions and traps while in the kernel.
void
trapinithart(void)
{
    8000183c:	1141                	addi	sp,sp,-16
    8000183e:	e406                	sd	ra,8(sp)
    80001840:	e022                	sd	s0,0(sp)
    80001842:	0800                	addi	s0,sp,16
  asm volatile("csrw stvec, %0" : : "r" (x));
    80001844:	00003797          	auipc	a5,0x3
    80001848:	0fc78793          	addi	a5,a5,252 # 80004940 <kernelvec>
    8000184c:	10579073          	csrw	stvec,a5
  w_stvec((uint64)kernelvec);
}
    80001850:	60a2                	ld	ra,8(sp)
    80001852:	6402                	ld	s0,0(sp)
    80001854:	0141                	addi	sp,sp,16
    80001856:	8082                	ret

0000000080001858 <usertrapret>:
//
// return to user space
//
void
usertrapret(void)
{
    80001858:	1141                	addi	sp,sp,-16
    8000185a:	e406                	sd	ra,8(sp)
    8000185c:	e022                	sd	s0,0(sp)
    8000185e:	0800                	addi	s0,sp,16
  struct proc *p = myproc();
    80001860:	cfcff0ef          	jal	80000d5c <myproc>
  asm volatile("csrr %0, sstatus" : "=r" (x) );
    80001864:	100027f3          	csrr	a5,sstatus
  w_sstatus(r_sstatus() & ~SSTATUS_SIE);
    80001868:	9bf5                	andi	a5,a5,-3
  asm volatile("csrw sstatus, %0" : : "r" (x));
    8000186a:	10079073          	csrw	sstatus,a5
  // kerneltrap() to usertrap(), so turn off interrupts until
  // we're back in user space, where usertrap() is correct.
  intr_off();

  // send syscalls, interrupts, and exceptions to uservec in trampoline.S
  uint64 trampoline_uservec = TRAMPOLINE + (uservec - trampoline);
    8000186e:	00004697          	auipc	a3,0x4
    80001872:	79268693          	addi	a3,a3,1938 # 80006000 <_trampoline>
    80001876:	00004717          	auipc	a4,0x4
    8000187a:	78a70713          	addi	a4,a4,1930 # 80006000 <_trampoline>
    8000187e:	8f15                	sub	a4,a4,a3
    80001880:	040007b7          	lui	a5,0x4000
    80001884:	17fd                	addi	a5,a5,-1 # 3ffffff <_entry-0x7c000001>
    80001886:	07b2                	slli	a5,a5,0xc
    80001888:	973e                	add	a4,a4,a5
  asm volatile("csrw stvec, %0" : : "r" (x));
    8000188a:	10571073          	csrw	stvec,a4
  w_stvec(trampoline_uservec);

  // set up trapframe values that uservec will need when
  // the process next traps into the kernel.
  p->trapframe->kernel_satp = r_satp();         // kernel page table
    8000188e:	6d38                	ld	a4,88(a0)
  asm volatile("csrr %0, satp" : "=r" (x) );
    80001890:	18002673          	csrr	a2,satp
    80001894:	e310                	sd	a2,0(a4)
  p->trapframe->kernel_sp = p->kstack + PGSIZE; // process's kernel stack
    80001896:	6d30                	ld	a2,88(a0)
    80001898:	6138                	ld	a4,64(a0)
    8000189a:	6585                	lui	a1,0x1
    8000189c:	972e                	add	a4,a4,a1
    8000189e:	e618                	sd	a4,8(a2)
  p->trapframe->kernel_trap = (uint64)usertrap;
    800018a0:	6d38                	ld	a4,88(a0)
    800018a2:	00000617          	auipc	a2,0x0
    800018a6:	11060613          	addi	a2,a2,272 # 800019b2 <usertrap>
    800018aa:	eb10                	sd	a2,16(a4)
  p->trapframe->kernel_hartid = r_tp();         // hartid for cpuid()
    800018ac:	6d38                	ld	a4,88(a0)
  asm volatile("mv %0, tp" : "=r" (x) );
    800018ae:	8612                	mv	a2,tp
    800018b0:	f310                	sd	a2,32(a4)
  asm volatile("csrr %0, sstatus" : "=r" (x) );
    800018b2:	10002773          	csrr	a4,sstatus
  // set up the registers that trampoline.S's sret will use
  // to get to user space.
  
  // set S Previous Privilege mode to User.
  unsigned long x = r_sstatus();
  x &= ~SSTATUS_SPP; // clear SPP to 0 for user mode
    800018b6:	eff77713          	andi	a4,a4,-257
  x |= SSTATUS_SPIE; // enable interrupts in user mode
    800018ba:	02076713          	ori	a4,a4,32
  asm volatile("csrw sstatus, %0" : : "r" (x));
    800018be:	10071073          	csrw	sstatus,a4
  w_sstatus(x);

  // set S Exception Program Counter to the saved user pc.
  w_sepc(p->trapframe->epc);
    800018c2:	6d38                	ld	a4,88(a0)
  asm volatile("csrw sepc, %0" : : "r" (x));
    800018c4:	6f18                	ld	a4,24(a4)
    800018c6:	14171073          	csrw	sepc,a4

  // tell trampoline.S the user page table to switch to.
  uint64 satp = MAKE_SATP(p->pagetable);
    800018ca:	6928                	ld	a0,80(a0)
    800018cc:	8131                	srli	a0,a0,0xc

  // jump to userret in trampoline.S at the top of memory, which 
  // switches to the user page table, restores user registers,
  // and switches to user mode with sret.
  uint64 trampoline_userret = TRAMPOLINE + (userret - trampoline);
    800018ce:	00004717          	auipc	a4,0x4
    800018d2:	7ce70713          	addi	a4,a4,1998 # 8000609c <userret>
    800018d6:	8f15                	sub	a4,a4,a3
    800018d8:	97ba                	add	a5,a5,a4
  ((void (*)(uint64))trampoline_userret)(satp);
    800018da:	577d                	li	a4,-1
    800018dc:	177e                	slli	a4,a4,0x3f
    800018de:	8d59                	or	a0,a0,a4
    800018e0:	9782                	jalr	a5
}
    800018e2:	60a2                	ld	ra,8(sp)
    800018e4:	6402                	ld	s0,0(sp)
    800018e6:	0141                	addi	sp,sp,16
    800018e8:	8082                	ret

00000000800018ea <clockintr>:
  w_sstatus(sstatus);
}

void
clockintr()
{
    800018ea:	1101                	addi	sp,sp,-32
    800018ec:	ec06                	sd	ra,24(sp)
    800018ee:	e822                	sd	s0,16(sp)
    800018f0:	1000                	addi	s0,sp,32
  if(cpuid() == 0){
    800018f2:	c36ff0ef          	jal	80000d28 <cpuid>
    800018f6:	cd11                	beqz	a0,80001912 <clockintr+0x28>
  asm volatile("csrr %0, time" : "=r" (x) );
    800018f8:	c01027f3          	rdtime	a5
  }

  // ask for the next timer interrupt. this also clears
  // the interrupt request. 1000000 is about a tenth
  // of a second.
  w_stimecmp(r_time() + 1000000);
    800018fc:	000f4737          	lui	a4,0xf4
    80001900:	24070713          	addi	a4,a4,576 # f4240 <_entry-0x7ff0bdc0>
    80001904:	97ba                	add	a5,a5,a4
  asm volatile("csrw 0x14d, %0" : : "r" (x));
    80001906:	14d79073          	csrw	stimecmp,a5
}
    8000190a:	60e2                	ld	ra,24(sp)
    8000190c:	6442                	ld	s0,16(sp)
    8000190e:	6105                	addi	sp,sp,32
    80001910:	8082                	ret
    80001912:	e426                	sd	s1,8(sp)
    acquire(&tickslock);
    80001914:	00007497          	auipc	s1,0x7
    80001918:	26c48493          	addi	s1,s1,620 # 80008b80 <tickslock>
    8000191c:	8526                	mv	a0,s1
    8000191e:	0b6040ef          	jal	800059d4 <acquire>
    ticks++;
    80001922:	00006517          	auipc	a0,0x6
    80001926:	fe650513          	addi	a0,a0,-26 # 80007908 <ticks>
    8000192a:	411c                	lw	a5,0(a0)
    8000192c:	2785                	addiw	a5,a5,1
    8000192e:	c11c                	sw	a5,0(a0)
    wakeup(&ticks);
    80001930:	a43ff0ef          	jal	80001372 <wakeup>
    release(&tickslock);
    80001934:	8526                	mv	a0,s1
    80001936:	132040ef          	jal	80005a68 <release>
    8000193a:	64a2                	ld	s1,8(sp)
    8000193c:	bf75                	j	800018f8 <clockintr+0xe>

000000008000193e <devintr>:
// returns 2 if timer interrupt,
// 1 if other device,
// 0 if not recognized.
int
devintr()
{
    8000193e:	1101                	addi	sp,sp,-32
    80001940:	ec06                	sd	ra,24(sp)
    80001942:	e822                	sd	s0,16(sp)
    80001944:	1000                	addi	s0,sp,32
  asm volatile("csrr %0, scause" : "=r" (x) );
    80001946:	14202773          	csrr	a4,scause
  uint64 scause = r_scause();

  if(scause == 0x8000000000000009L){
    8000194a:	57fd                	li	a5,-1
    8000194c:	17fe                	slli	a5,a5,0x3f
    8000194e:	07a5                	addi	a5,a5,9
    80001950:	00f70c63          	beq	a4,a5,80001968 <devintr+0x2a>
    // now allowed to interrupt again.
    if(irq)
      plic_complete(irq);

    return 1;
  } else if(scause == 0x8000000000000005L){
    80001954:	57fd                	li	a5,-1
    80001956:	17fe                	slli	a5,a5,0x3f
    80001958:	0795                	addi	a5,a5,5
    // timer interrupt.
    clockintr();
    return 2;
  } else {
    return 0;
    8000195a:	4501                	li	a0,0
  } else if(scause == 0x8000000000000005L){
    8000195c:	04f70763          	beq	a4,a5,800019aa <devintr+0x6c>
  }
}
    80001960:	60e2                	ld	ra,24(sp)
    80001962:	6442                	ld	s0,16(sp)
    80001964:	6105                	addi	sp,sp,32
    80001966:	8082                	ret
    80001968:	e426                	sd	s1,8(sp)
    int irq = plic_claim();
    8000196a:	082030ef          	jal	800049ec <plic_claim>
    8000196e:	84aa                	mv	s1,a0
    if(irq == UART0_IRQ){
    80001970:	47a9                	li	a5,10
    80001972:	00f50963          	beq	a0,a5,80001984 <devintr+0x46>
    } else if(irq == VIRTIO0_IRQ){
    80001976:	4785                	li	a5,1
    80001978:	00f50963          	beq	a0,a5,8000198a <devintr+0x4c>
    return 1;
    8000197c:	4505                	li	a0,1
    } else if(irq){
    8000197e:	e889                	bnez	s1,80001990 <devintr+0x52>
    80001980:	64a2                	ld	s1,8(sp)
    80001982:	bff9                	j	80001960 <devintr+0x22>
      uartintr();
    80001984:	791030ef          	jal	80005914 <uartintr>
    if(irq)
    80001988:	a819                	j	8000199e <devintr+0x60>
      virtio_disk_intr();
    8000198a:	4f2030ef          	jal	80004e7c <virtio_disk_intr>
    if(irq)
    8000198e:	a801                	j	8000199e <devintr+0x60>
      printf("unexpected interrupt irq=%d\n", irq);
    80001990:	85a6                	mv	a1,s1
    80001992:	00006517          	auipc	a0,0x6
    80001996:	8fe50513          	addi	a0,a0,-1794 # 80007290 <etext+0x290>
    8000199a:	23d030ef          	jal	800053d6 <printf>
      plic_complete(irq);
    8000199e:	8526                	mv	a0,s1
    800019a0:	06c030ef          	jal	80004a0c <plic_complete>
    return 1;
    800019a4:	4505                	li	a0,1
    800019a6:	64a2                	ld	s1,8(sp)
    800019a8:	bf65                	j	80001960 <devintr+0x22>
    clockintr();
    800019aa:	f41ff0ef          	jal	800018ea <clockintr>
    return 2;
    800019ae:	4509                	li	a0,2
    800019b0:	bf45                	j	80001960 <devintr+0x22>

00000000800019b2 <usertrap>:
{
    800019b2:	1101                	addi	sp,sp,-32
    800019b4:	ec06                	sd	ra,24(sp)
    800019b6:	e822                	sd	s0,16(sp)
    800019b8:	e426                	sd	s1,8(sp)
    800019ba:	e04a                	sd	s2,0(sp)
    800019bc:	1000                	addi	s0,sp,32
  asm volatile("csrr %0, sstatus" : "=r" (x) );
    800019be:	100027f3          	csrr	a5,sstatus
  if((r_sstatus() & SSTATUS_SPP) != 0)
    800019c2:	1007f793          	andi	a5,a5,256
    800019c6:	ef85                	bnez	a5,800019fe <usertrap+0x4c>
  asm volatile("csrw stvec, %0" : : "r" (x));
    800019c8:	00003797          	auipc	a5,0x3
    800019cc:	f7878793          	addi	a5,a5,-136 # 80004940 <kernelvec>
    800019d0:	10579073          	csrw	stvec,a5
  struct proc *p = myproc();
    800019d4:	b88ff0ef          	jal	80000d5c <myproc>
    800019d8:	84aa                	mv	s1,a0
  p->trapframe->epc = r_sepc();
    800019da:	6d3c                	ld	a5,88(a0)
  asm volatile("csrr %0, sepc" : "=r" (x) );
    800019dc:	14102773          	csrr	a4,sepc
    800019e0:	ef98                	sd	a4,24(a5)
  asm volatile("csrr %0, scause" : "=r" (x) );
    800019e2:	14202773          	csrr	a4,scause
  if(r_scause() == 8){
    800019e6:	47a1                	li	a5,8
    800019e8:	02f70163          	beq	a4,a5,80001a0a <usertrap+0x58>
  } else if((which_dev = devintr()) != 0){
    800019ec:	f53ff0ef          	jal	8000193e <devintr>
    800019f0:	892a                	mv	s2,a0
    800019f2:	c135                	beqz	a0,80001a56 <usertrap+0xa4>
  if(killed(p))
    800019f4:	8526                	mv	a0,s1
    800019f6:	b63ff0ef          	jal	80001558 <killed>
    800019fa:	cd1d                	beqz	a0,80001a38 <usertrap+0x86>
    800019fc:	a81d                	j	80001a32 <usertrap+0x80>
    panic("usertrap: not from user mode");
    800019fe:	00006517          	auipc	a0,0x6
    80001a02:	8b250513          	addi	a0,a0,-1870 # 800072b0 <etext+0x2b0>
    80001a06:	4a1030ef          	jal	800056a6 <panic>
    if(killed(p))
    80001a0a:	b4fff0ef          	jal	80001558 <killed>
    80001a0e:	e121                	bnez	a0,80001a4e <usertrap+0x9c>
    p->trapframe->epc += 4;
    80001a10:	6cb8                	ld	a4,88(s1)
    80001a12:	6f1c                	ld	a5,24(a4)
    80001a14:	0791                	addi	a5,a5,4
    80001a16:	ef1c                	sd	a5,24(a4)
  asm volatile("csrr %0, sstatus" : "=r" (x) );
    80001a18:	100027f3          	csrr	a5,sstatus
  w_sstatus(r_sstatus() | SSTATUS_SIE);
    80001a1c:	0027e793          	ori	a5,a5,2
  asm volatile("csrw sstatus, %0" : : "r" (x));
    80001a20:	10079073          	csrw	sstatus,a5
    syscall();
    80001a24:	240000ef          	jal	80001c64 <syscall>
  if(killed(p))
    80001a28:	8526                	mv	a0,s1
    80001a2a:	b2fff0ef          	jal	80001558 <killed>
    80001a2e:	c901                	beqz	a0,80001a3e <usertrap+0x8c>
    80001a30:	4901                	li	s2,0
    exit(-1);
    80001a32:	557d                	li	a0,-1
    80001a34:	9f9ff0ef          	jal	8000142c <exit>
  if(which_dev == 2)
    80001a38:	4789                	li	a5,2
    80001a3a:	04f90563          	beq	s2,a5,80001a84 <usertrap+0xd2>
  usertrapret();
    80001a3e:	e1bff0ef          	jal	80001858 <usertrapret>
}
    80001a42:	60e2                	ld	ra,24(sp)
    80001a44:	6442                	ld	s0,16(sp)
    80001a46:	64a2                	ld	s1,8(sp)
    80001a48:	6902                	ld	s2,0(sp)
    80001a4a:	6105                	addi	sp,sp,32
    80001a4c:	8082                	ret
      exit(-1);
    80001a4e:	557d                	li	a0,-1
    80001a50:	9ddff0ef          	jal	8000142c <exit>
    80001a54:	bf75                	j	80001a10 <usertrap+0x5e>
  asm volatile("csrr %0, scause" : "=r" (x) );
    80001a56:	142025f3          	csrr	a1,scause
    printf("usertrap(): unexpected scause 0x%lx pid=%d\n", r_scause(), p->pid);
    80001a5a:	5890                	lw	a2,48(s1)
    80001a5c:	00006517          	auipc	a0,0x6
    80001a60:	87450513          	addi	a0,a0,-1932 # 800072d0 <etext+0x2d0>
    80001a64:	173030ef          	jal	800053d6 <printf>
  asm volatile("csrr %0, sepc" : "=r" (x) );
    80001a68:	141025f3          	csrr	a1,sepc
  asm volatile("csrr %0, stval" : "=r" (x) );
    80001a6c:	14302673          	csrr	a2,stval
    printf("            sepc=0x%lx stval=0x%lx\n", r_sepc(), r_stval());
    80001a70:	00006517          	auipc	a0,0x6
    80001a74:	89050513          	addi	a0,a0,-1904 # 80007300 <etext+0x300>
    80001a78:	15f030ef          	jal	800053d6 <printf>
    setkilled(p);
    80001a7c:	8526                	mv	a0,s1
    80001a7e:	ab7ff0ef          	jal	80001534 <setkilled>
    80001a82:	b75d                	j	80001a28 <usertrap+0x76>
    yield();
    80001a84:	877ff0ef          	jal	800012fa <yield>
    80001a88:	bf5d                	j	80001a3e <usertrap+0x8c>

0000000080001a8a <kerneltrap>:
{
    80001a8a:	7179                	addi	sp,sp,-48
    80001a8c:	f406                	sd	ra,40(sp)
    80001a8e:	f022                	sd	s0,32(sp)
    80001a90:	ec26                	sd	s1,24(sp)
    80001a92:	e84a                	sd	s2,16(sp)
    80001a94:	e44e                	sd	s3,8(sp)
    80001a96:	1800                	addi	s0,sp,48
  asm volatile("csrr %0, sepc" : "=r" (x) );
    80001a98:	14102973          	csrr	s2,sepc
  asm volatile("csrr %0, sstatus" : "=r" (x) );
    80001a9c:	100024f3          	csrr	s1,sstatus
  asm volatile("csrr %0, scause" : "=r" (x) );
    80001aa0:	142029f3          	csrr	s3,scause
  if((sstatus & SSTATUS_SPP) == 0)
    80001aa4:	1004f793          	andi	a5,s1,256
    80001aa8:	c795                	beqz	a5,80001ad4 <kerneltrap+0x4a>
  asm volatile("csrr %0, sstatus" : "=r" (x) );
    80001aaa:	100027f3          	csrr	a5,sstatus
  return (x & SSTATUS_SIE) != 0;
    80001aae:	8b89                	andi	a5,a5,2
  if(intr_get() != 0)
    80001ab0:	eb85                	bnez	a5,80001ae0 <kerneltrap+0x56>
  if((which_dev = devintr()) == 0){
    80001ab2:	e8dff0ef          	jal	8000193e <devintr>
    80001ab6:	c91d                	beqz	a0,80001aec <kerneltrap+0x62>
  if(which_dev == 2 && myproc() != 0)
    80001ab8:	4789                	li	a5,2
    80001aba:	04f50a63          	beq	a0,a5,80001b0e <kerneltrap+0x84>
  asm volatile("csrw sepc, %0" : : "r" (x));
    80001abe:	14191073          	csrw	sepc,s2
  asm volatile("csrw sstatus, %0" : : "r" (x));
    80001ac2:	10049073          	csrw	sstatus,s1
}
    80001ac6:	70a2                	ld	ra,40(sp)
    80001ac8:	7402                	ld	s0,32(sp)
    80001aca:	64e2                	ld	s1,24(sp)
    80001acc:	6942                	ld	s2,16(sp)
    80001ace:	69a2                	ld	s3,8(sp)
    80001ad0:	6145                	addi	sp,sp,48
    80001ad2:	8082                	ret
    panic("kerneltrap: not from supervisor mode");
    80001ad4:	00006517          	auipc	a0,0x6
    80001ad8:	85450513          	addi	a0,a0,-1964 # 80007328 <etext+0x328>
    80001adc:	3cb030ef          	jal	800056a6 <panic>
    panic("kerneltrap: interrupts enabled");
    80001ae0:	00006517          	auipc	a0,0x6
    80001ae4:	87050513          	addi	a0,a0,-1936 # 80007350 <etext+0x350>
    80001ae8:	3bf030ef          	jal	800056a6 <panic>
  asm volatile("csrr %0, sepc" : "=r" (x) );
    80001aec:	14102673          	csrr	a2,sepc
  asm volatile("csrr %0, stval" : "=r" (x) );
    80001af0:	143026f3          	csrr	a3,stval
    printf("scause=0x%lx sepc=0x%lx stval=0x%lx\n", scause, r_sepc(), r_stval());
    80001af4:	85ce                	mv	a1,s3
    80001af6:	00006517          	auipc	a0,0x6
    80001afa:	87a50513          	addi	a0,a0,-1926 # 80007370 <etext+0x370>
    80001afe:	0d9030ef          	jal	800053d6 <printf>
    panic("kerneltrap");
    80001b02:	00006517          	auipc	a0,0x6
    80001b06:	89650513          	addi	a0,a0,-1898 # 80007398 <etext+0x398>
    80001b0a:	39d030ef          	jal	800056a6 <panic>
  if(which_dev == 2 && myproc() != 0)
    80001b0e:	a4eff0ef          	jal	80000d5c <myproc>
    80001b12:	d555                	beqz	a0,80001abe <kerneltrap+0x34>
    yield();
    80001b14:	fe6ff0ef          	jal	800012fa <yield>
    80001b18:	b75d                	j	80001abe <kerneltrap+0x34>

0000000080001b1a <argraw>:
  return strlen(buf);
}

static uint64
argraw(int n)
{
    80001b1a:	1101                	addi	sp,sp,-32
    80001b1c:	ec06                	sd	ra,24(sp)
    80001b1e:	e822                	sd	s0,16(sp)
    80001b20:	e426                	sd	s1,8(sp)
    80001b22:	1000                	addi	s0,sp,32
    80001b24:	84aa                	mv	s1,a0
  struct proc *p = myproc();
    80001b26:	a36ff0ef          	jal	80000d5c <myproc>
  switch (n) {
    80001b2a:	4795                	li	a5,5
    80001b2c:	0497e163          	bltu	a5,s1,80001b6e <argraw+0x54>
    80001b30:	048a                	slli	s1,s1,0x2
    80001b32:	00006717          	auipc	a4,0x6
    80001b36:	c8670713          	addi	a4,a4,-890 # 800077b8 <states.0+0x30>
    80001b3a:	94ba                	add	s1,s1,a4
    80001b3c:	409c                	lw	a5,0(s1)
    80001b3e:	97ba                	add	a5,a5,a4
    80001b40:	8782                	jr	a5
  case 0:
    return p->trapframe->a0;
    80001b42:	6d3c                	ld	a5,88(a0)
    80001b44:	7ba8                	ld	a0,112(a5)
  case 5:
    return p->trapframe->a5;
  }
  panic("argraw");
  return -1;
}
    80001b46:	60e2                	ld	ra,24(sp)
    80001b48:	6442                	ld	s0,16(sp)
    80001b4a:	64a2                	ld	s1,8(sp)
    80001b4c:	6105                	addi	sp,sp,32
    80001b4e:	8082                	ret
    return p->trapframe->a1;
    80001b50:	6d3c                	ld	a5,88(a0)
    80001b52:	7fa8                	ld	a0,120(a5)
    80001b54:	bfcd                	j	80001b46 <argraw+0x2c>
    return p->trapframe->a2;
    80001b56:	6d3c                	ld	a5,88(a0)
    80001b58:	63c8                	ld	a0,128(a5)
    80001b5a:	b7f5                	j	80001b46 <argraw+0x2c>
    return p->trapframe->a3;
    80001b5c:	6d3c                	ld	a5,88(a0)
    80001b5e:	67c8                	ld	a0,136(a5)
    80001b60:	b7dd                	j	80001b46 <argraw+0x2c>
    return p->trapframe->a4;
    80001b62:	6d3c                	ld	a5,88(a0)
    80001b64:	6bc8                	ld	a0,144(a5)
    80001b66:	b7c5                	j	80001b46 <argraw+0x2c>
    return p->trapframe->a5;
    80001b68:	6d3c                	ld	a5,88(a0)
    80001b6a:	6fc8                	ld	a0,152(a5)
    80001b6c:	bfe9                	j	80001b46 <argraw+0x2c>
  panic("argraw");
    80001b6e:	00006517          	auipc	a0,0x6
    80001b72:	83a50513          	addi	a0,a0,-1990 # 800073a8 <etext+0x3a8>
    80001b76:	331030ef          	jal	800056a6 <panic>

0000000080001b7a <fetchaddr>:
{
    80001b7a:	1101                	addi	sp,sp,-32
    80001b7c:	ec06                	sd	ra,24(sp)
    80001b7e:	e822                	sd	s0,16(sp)
    80001b80:	e426                	sd	s1,8(sp)
    80001b82:	e04a                	sd	s2,0(sp)
    80001b84:	1000                	addi	s0,sp,32
    80001b86:	84aa                	mv	s1,a0
    80001b88:	892e                	mv	s2,a1
  struct proc *p = myproc();
    80001b8a:	9d2ff0ef          	jal	80000d5c <myproc>
  if(addr >= p->sz || addr+sizeof(uint64) > p->sz) // both tests needed, in case of overflow
    80001b8e:	653c                	ld	a5,72(a0)
    80001b90:	02f4f663          	bgeu	s1,a5,80001bbc <fetchaddr+0x42>
    80001b94:	00848713          	addi	a4,s1,8
    80001b98:	02e7e463          	bltu	a5,a4,80001bc0 <fetchaddr+0x46>
  if(copyin(p->pagetable, (char *)ip, addr, sizeof(*ip)) != 0)
    80001b9c:	46a1                	li	a3,8
    80001b9e:	8626                	mv	a2,s1
    80001ba0:	85ca                	mv	a1,s2
    80001ba2:	6928                	ld	a0,80(a0)
    80001ba4:	f11fe0ef          	jal	80000ab4 <copyin>
    80001ba8:	00a03533          	snez	a0,a0
    80001bac:	40a0053b          	negw	a0,a0
}
    80001bb0:	60e2                	ld	ra,24(sp)
    80001bb2:	6442                	ld	s0,16(sp)
    80001bb4:	64a2                	ld	s1,8(sp)
    80001bb6:	6902                	ld	s2,0(sp)
    80001bb8:	6105                	addi	sp,sp,32
    80001bba:	8082                	ret
    return -1;
    80001bbc:	557d                	li	a0,-1
    80001bbe:	bfcd                	j	80001bb0 <fetchaddr+0x36>
    80001bc0:	557d                	li	a0,-1
    80001bc2:	b7fd                	j	80001bb0 <fetchaddr+0x36>

0000000080001bc4 <fetchstr>:
{
    80001bc4:	7179                	addi	sp,sp,-48
    80001bc6:	f406                	sd	ra,40(sp)
    80001bc8:	f022                	sd	s0,32(sp)
    80001bca:	ec26                	sd	s1,24(sp)
    80001bcc:	e84a                	sd	s2,16(sp)
    80001bce:	e44e                	sd	s3,8(sp)
    80001bd0:	1800                	addi	s0,sp,48
    80001bd2:	892a                	mv	s2,a0
    80001bd4:	84ae                	mv	s1,a1
    80001bd6:	89b2                	mv	s3,a2
  struct proc *p = myproc();
    80001bd8:	984ff0ef          	jal	80000d5c <myproc>
  if(copyinstr(p->pagetable, buf, addr, max) < 0)
    80001bdc:	86ce                	mv	a3,s3
    80001bde:	864a                	mv	a2,s2
    80001be0:	85a6                	mv	a1,s1
    80001be2:	6928                	ld	a0,80(a0)
    80001be4:	f57fe0ef          	jal	80000b3a <copyinstr>
    80001be8:	00054c63          	bltz	a0,80001c00 <fetchstr+0x3c>
  return strlen(buf);
    80001bec:	8526                	mv	a0,s1
    80001bee:	ee8fe0ef          	jal	800002d6 <strlen>
}
    80001bf2:	70a2                	ld	ra,40(sp)
    80001bf4:	7402                	ld	s0,32(sp)
    80001bf6:	64e2                	ld	s1,24(sp)
    80001bf8:	6942                	ld	s2,16(sp)
    80001bfa:	69a2                	ld	s3,8(sp)
    80001bfc:	6145                	addi	sp,sp,48
    80001bfe:	8082                	ret
    return -1;
    80001c00:	557d                	li	a0,-1
    80001c02:	bfc5                	j	80001bf2 <fetchstr+0x2e>

0000000080001c04 <argint>:

// Fetch the nth 32-bit system call argument.
void
argint(int n, int *ip)
{
    80001c04:	1101                	addi	sp,sp,-32
    80001c06:	ec06                	sd	ra,24(sp)
    80001c08:	e822                	sd	s0,16(sp)
    80001c0a:	e426                	sd	s1,8(sp)
    80001c0c:	1000                	addi	s0,sp,32
    80001c0e:	84ae                	mv	s1,a1
  *ip = argraw(n);
    80001c10:	f0bff0ef          	jal	80001b1a <argraw>
    80001c14:	c088                	sw	a0,0(s1)
}
    80001c16:	60e2                	ld	ra,24(sp)
    80001c18:	6442                	ld	s0,16(sp)
    80001c1a:	64a2                	ld	s1,8(sp)
    80001c1c:	6105                	addi	sp,sp,32
    80001c1e:	8082                	ret

0000000080001c20 <argaddr>:
// Retrieve an argument as a pointer.
// Doesn't check for legality, since
// copyin/copyout will do that.
void
argaddr(int n, uint64 *ip)
{
    80001c20:	1101                	addi	sp,sp,-32
    80001c22:	ec06                	sd	ra,24(sp)
    80001c24:	e822                	sd	s0,16(sp)
    80001c26:	e426                	sd	s1,8(sp)
    80001c28:	1000                	addi	s0,sp,32
    80001c2a:	84ae                	mv	s1,a1
  *ip = argraw(n);
    80001c2c:	eefff0ef          	jal	80001b1a <argraw>
    80001c30:	e088                	sd	a0,0(s1)
}
    80001c32:	60e2                	ld	ra,24(sp)
    80001c34:	6442                	ld	s0,16(sp)
    80001c36:	64a2                	ld	s1,8(sp)
    80001c38:	6105                	addi	sp,sp,32
    80001c3a:	8082                	ret

0000000080001c3c <argstr>:
// Fetch the nth word-sized system call argument as a null-terminated string.
// Copies into buf, at most max.
// Returns string length if OK (including nul), -1 if error.
int
argstr(int n, char *buf, int max)
{
    80001c3c:	1101                	addi	sp,sp,-32
    80001c3e:	ec06                	sd	ra,24(sp)
    80001c40:	e822                	sd	s0,16(sp)
    80001c42:	e426                	sd	s1,8(sp)
    80001c44:	e04a                	sd	s2,0(sp)
    80001c46:	1000                	addi	s0,sp,32
    80001c48:	84ae                	mv	s1,a1
    80001c4a:	8932                	mv	s2,a2
  *ip = argraw(n);
    80001c4c:	ecfff0ef          	jal	80001b1a <argraw>
  uint64 addr;
  argaddr(n, &addr);
  return fetchstr(addr, buf, max);
    80001c50:	864a                	mv	a2,s2
    80001c52:	85a6                	mv	a1,s1
    80001c54:	f71ff0ef          	jal	80001bc4 <fetchstr>
}
    80001c58:	60e2                	ld	ra,24(sp)
    80001c5a:	6442                	ld	s0,16(sp)
    80001c5c:	64a2                	ld	s1,8(sp)
    80001c5e:	6902                	ld	s2,0(sp)
    80001c60:	6105                	addi	sp,sp,32
    80001c62:	8082                	ret

0000000080001c64 <syscall>:
[SYS_symlink]   sys_symlink,
};

void
syscall(void)
{
    80001c64:	1101                	addi	sp,sp,-32
    80001c66:	ec06                	sd	ra,24(sp)
    80001c68:	e822                	sd	s0,16(sp)
    80001c6a:	e426                	sd	s1,8(sp)
    80001c6c:	e04a                	sd	s2,0(sp)
    80001c6e:	1000                	addi	s0,sp,32
  int num;
  struct proc *p = myproc();
    80001c70:	8ecff0ef          	jal	80000d5c <myproc>
    80001c74:	84aa                	mv	s1,a0

  num = p->trapframe->a7;
    80001c76:	05853903          	ld	s2,88(a0)
    80001c7a:	0a893783          	ld	a5,168(s2)
    80001c7e:	0007869b          	sext.w	a3,a5
  if(num > 0 && num < NELEM(syscalls) && syscalls[num]) {
    80001c82:	37fd                	addiw	a5,a5,-1
    80001c84:	4755                	li	a4,21
    80001c86:	00f76f63          	bltu	a4,a5,80001ca4 <syscall+0x40>
    80001c8a:	00369713          	slli	a4,a3,0x3
    80001c8e:	00006797          	auipc	a5,0x6
    80001c92:	b4278793          	addi	a5,a5,-1214 # 800077d0 <syscalls>
    80001c96:	97ba                	add	a5,a5,a4
    80001c98:	639c                	ld	a5,0(a5)
    80001c9a:	c789                	beqz	a5,80001ca4 <syscall+0x40>
    // Use num to lookup the system call function for num, call it,
    // and store its return value in p->trapframe->a0
    p->trapframe->a0 = syscalls[num]();
    80001c9c:	9782                	jalr	a5
    80001c9e:	06a93823          	sd	a0,112(s2)
    80001ca2:	a829                	j	80001cbc <syscall+0x58>
  } else {
    printf("%d %s: unknown sys call %d\n",
    80001ca4:	15848613          	addi	a2,s1,344
    80001ca8:	588c                	lw	a1,48(s1)
    80001caa:	00005517          	auipc	a0,0x5
    80001cae:	70650513          	addi	a0,a0,1798 # 800073b0 <etext+0x3b0>
    80001cb2:	724030ef          	jal	800053d6 <printf>
            p->pid, p->name, num);
    p->trapframe->a0 = -1;
    80001cb6:	6cbc                	ld	a5,88(s1)
    80001cb8:	577d                	li	a4,-1
    80001cba:	fbb8                	sd	a4,112(a5)
  }
}
    80001cbc:	60e2                	ld	ra,24(sp)
    80001cbe:	6442                	ld	s0,16(sp)
    80001cc0:	64a2                	ld	s1,8(sp)
    80001cc2:	6902                	ld	s2,0(sp)
    80001cc4:	6105                	addi	sp,sp,32
    80001cc6:	8082                	ret

0000000080001cc8 <sys_exit>:
#include "spinlock.h"
#include "proc.h"

uint64
sys_exit(void)
{
    80001cc8:	1101                	addi	sp,sp,-32
    80001cca:	ec06                	sd	ra,24(sp)
    80001ccc:	e822                	sd	s0,16(sp)
    80001cce:	1000                	addi	s0,sp,32
  int n;
  argint(0, &n);
    80001cd0:	fec40593          	addi	a1,s0,-20
    80001cd4:	4501                	li	a0,0
    80001cd6:	f2fff0ef          	jal	80001c04 <argint>
  exit(n);
    80001cda:	fec42503          	lw	a0,-20(s0)
    80001cde:	f4eff0ef          	jal	8000142c <exit>
  return 0;  // not reached
}
    80001ce2:	4501                	li	a0,0
    80001ce4:	60e2                	ld	ra,24(sp)
    80001ce6:	6442                	ld	s0,16(sp)
    80001ce8:	6105                	addi	sp,sp,32
    80001cea:	8082                	ret

0000000080001cec <sys_getpid>:

uint64
sys_getpid(void)
{
    80001cec:	1141                	addi	sp,sp,-16
    80001cee:	e406                	sd	ra,8(sp)
    80001cf0:	e022                	sd	s0,0(sp)
    80001cf2:	0800                	addi	s0,sp,16
  return myproc()->pid;
    80001cf4:	868ff0ef          	jal	80000d5c <myproc>
}
    80001cf8:	5908                	lw	a0,48(a0)
    80001cfa:	60a2                	ld	ra,8(sp)
    80001cfc:	6402                	ld	s0,0(sp)
    80001cfe:	0141                	addi	sp,sp,16
    80001d00:	8082                	ret

0000000080001d02 <sys_fork>:

uint64
sys_fork(void)
{
    80001d02:	1141                	addi	sp,sp,-16
    80001d04:	e406                	sd	ra,8(sp)
    80001d06:	e022                	sd	s0,0(sp)
    80001d08:	0800                	addi	s0,sp,16
  return fork();
    80001d0a:	b78ff0ef          	jal	80001082 <fork>
}
    80001d0e:	60a2                	ld	ra,8(sp)
    80001d10:	6402                	ld	s0,0(sp)
    80001d12:	0141                	addi	sp,sp,16
    80001d14:	8082                	ret

0000000080001d16 <sys_wait>:

uint64
sys_wait(void)
{
    80001d16:	1101                	addi	sp,sp,-32
    80001d18:	ec06                	sd	ra,24(sp)
    80001d1a:	e822                	sd	s0,16(sp)
    80001d1c:	1000                	addi	s0,sp,32
  uint64 p;
  argaddr(0, &p);
    80001d1e:	fe840593          	addi	a1,s0,-24
    80001d22:	4501                	li	a0,0
    80001d24:	efdff0ef          	jal	80001c20 <argaddr>
  return wait(p);
    80001d28:	fe843503          	ld	a0,-24(s0)
    80001d2c:	857ff0ef          	jal	80001582 <wait>
}
    80001d30:	60e2                	ld	ra,24(sp)
    80001d32:	6442                	ld	s0,16(sp)
    80001d34:	6105                	addi	sp,sp,32
    80001d36:	8082                	ret

0000000080001d38 <sys_sbrk>:

uint64
sys_sbrk(void)
{
    80001d38:	7179                	addi	sp,sp,-48
    80001d3a:	f406                	sd	ra,40(sp)
    80001d3c:	f022                	sd	s0,32(sp)
    80001d3e:	ec26                	sd	s1,24(sp)
    80001d40:	1800                	addi	s0,sp,48
  uint64 addr;
  int n;

  argint(0, &n);
    80001d42:	fdc40593          	addi	a1,s0,-36
    80001d46:	4501                	li	a0,0
    80001d48:	ebdff0ef          	jal	80001c04 <argint>
  addr = myproc()->sz;
    80001d4c:	810ff0ef          	jal	80000d5c <myproc>
    80001d50:	6524                	ld	s1,72(a0)
  if(growproc(n) < 0)
    80001d52:	fdc42503          	lw	a0,-36(s0)
    80001d56:	adcff0ef          	jal	80001032 <growproc>
    80001d5a:	00054863          	bltz	a0,80001d6a <sys_sbrk+0x32>
    return -1;
  return addr;
}
    80001d5e:	8526                	mv	a0,s1
    80001d60:	70a2                	ld	ra,40(sp)
    80001d62:	7402                	ld	s0,32(sp)
    80001d64:	64e2                	ld	s1,24(sp)
    80001d66:	6145                	addi	sp,sp,48
    80001d68:	8082                	ret
    return -1;
    80001d6a:	54fd                	li	s1,-1
    80001d6c:	bfcd                	j	80001d5e <sys_sbrk+0x26>

0000000080001d6e <sys_sleep>:

uint64
sys_sleep(void)
{
    80001d6e:	7139                	addi	sp,sp,-64
    80001d70:	fc06                	sd	ra,56(sp)
    80001d72:	f822                	sd	s0,48(sp)
    80001d74:	f04a                	sd	s2,32(sp)
    80001d76:	0080                	addi	s0,sp,64
  int n;
  uint ticks0;

  argint(0, &n);
    80001d78:	fcc40593          	addi	a1,s0,-52
    80001d7c:	4501                	li	a0,0
    80001d7e:	e87ff0ef          	jal	80001c04 <argint>
  if(n < 0)
    80001d82:	fcc42783          	lw	a5,-52(s0)
    80001d86:	0607c763          	bltz	a5,80001df4 <sys_sleep+0x86>
    n = 0;
  acquire(&tickslock);
    80001d8a:	00007517          	auipc	a0,0x7
    80001d8e:	df650513          	addi	a0,a0,-522 # 80008b80 <tickslock>
    80001d92:	443030ef          	jal	800059d4 <acquire>
  ticks0 = ticks;
    80001d96:	00006917          	auipc	s2,0x6
    80001d9a:	b7292903          	lw	s2,-1166(s2) # 80007908 <ticks>
  while(ticks - ticks0 < n){
    80001d9e:	fcc42783          	lw	a5,-52(s0)
    80001da2:	cf8d                	beqz	a5,80001ddc <sys_sleep+0x6e>
    80001da4:	f426                	sd	s1,40(sp)
    80001da6:	ec4e                	sd	s3,24(sp)
    if(killed(myproc())){
      release(&tickslock);
      return -1;
    }
    sleep(&ticks, &tickslock);
    80001da8:	00007997          	auipc	s3,0x7
    80001dac:	dd898993          	addi	s3,s3,-552 # 80008b80 <tickslock>
    80001db0:	00006497          	auipc	s1,0x6
    80001db4:	b5848493          	addi	s1,s1,-1192 # 80007908 <ticks>
    if(killed(myproc())){
    80001db8:	fa5fe0ef          	jal	80000d5c <myproc>
    80001dbc:	f9cff0ef          	jal	80001558 <killed>
    80001dc0:	ed0d                	bnez	a0,80001dfa <sys_sleep+0x8c>
    sleep(&ticks, &tickslock);
    80001dc2:	85ce                	mv	a1,s3
    80001dc4:	8526                	mv	a0,s1
    80001dc6:	d60ff0ef          	jal	80001326 <sleep>
  while(ticks - ticks0 < n){
    80001dca:	409c                	lw	a5,0(s1)
    80001dcc:	412787bb          	subw	a5,a5,s2
    80001dd0:	fcc42703          	lw	a4,-52(s0)
    80001dd4:	fee7e2e3          	bltu	a5,a4,80001db8 <sys_sleep+0x4a>
    80001dd8:	74a2                	ld	s1,40(sp)
    80001dda:	69e2                	ld	s3,24(sp)
  }
  release(&tickslock);
    80001ddc:	00007517          	auipc	a0,0x7
    80001de0:	da450513          	addi	a0,a0,-604 # 80008b80 <tickslock>
    80001de4:	485030ef          	jal	80005a68 <release>
  return 0;
    80001de8:	4501                	li	a0,0
}
    80001dea:	70e2                	ld	ra,56(sp)
    80001dec:	7442                	ld	s0,48(sp)
    80001dee:	7902                	ld	s2,32(sp)
    80001df0:	6121                	addi	sp,sp,64
    80001df2:	8082                	ret
    n = 0;
    80001df4:	fc042623          	sw	zero,-52(s0)
    80001df8:	bf49                	j	80001d8a <sys_sleep+0x1c>
      release(&tickslock);
    80001dfa:	00007517          	auipc	a0,0x7
    80001dfe:	d8650513          	addi	a0,a0,-634 # 80008b80 <tickslock>
    80001e02:	467030ef          	jal	80005a68 <release>
      return -1;
    80001e06:	557d                	li	a0,-1
    80001e08:	74a2                	ld	s1,40(sp)
    80001e0a:	69e2                	ld	s3,24(sp)
    80001e0c:	bff9                	j	80001dea <sys_sleep+0x7c>

0000000080001e0e <sys_kill>:

uint64
sys_kill(void)
{
    80001e0e:	1101                	addi	sp,sp,-32
    80001e10:	ec06                	sd	ra,24(sp)
    80001e12:	e822                	sd	s0,16(sp)
    80001e14:	1000                	addi	s0,sp,32
  int pid;

  argint(0, &pid);
    80001e16:	fec40593          	addi	a1,s0,-20
    80001e1a:	4501                	li	a0,0
    80001e1c:	de9ff0ef          	jal	80001c04 <argint>
  return kill(pid);
    80001e20:	fec42503          	lw	a0,-20(s0)
    80001e24:	eaaff0ef          	jal	800014ce <kill>
}
    80001e28:	60e2                	ld	ra,24(sp)
    80001e2a:	6442                	ld	s0,16(sp)
    80001e2c:	6105                	addi	sp,sp,32
    80001e2e:	8082                	ret

0000000080001e30 <sys_uptime>:

// return how many clock tick interrupts have occurred
// since start.
uint64
sys_uptime(void)
{
    80001e30:	1101                	addi	sp,sp,-32
    80001e32:	ec06                	sd	ra,24(sp)
    80001e34:	e822                	sd	s0,16(sp)
    80001e36:	e426                	sd	s1,8(sp)
    80001e38:	1000                	addi	s0,sp,32
  uint xticks;

  acquire(&tickslock);
    80001e3a:	00007517          	auipc	a0,0x7
    80001e3e:	d4650513          	addi	a0,a0,-698 # 80008b80 <tickslock>
    80001e42:	393030ef          	jal	800059d4 <acquire>
  xticks = ticks;
    80001e46:	00006497          	auipc	s1,0x6
    80001e4a:	ac24a483          	lw	s1,-1342(s1) # 80007908 <ticks>
  release(&tickslock);
    80001e4e:	00007517          	auipc	a0,0x7
    80001e52:	d3250513          	addi	a0,a0,-718 # 80008b80 <tickslock>
    80001e56:	413030ef          	jal	80005a68 <release>
  return xticks;
}
    80001e5a:	02049513          	slli	a0,s1,0x20
    80001e5e:	9101                	srli	a0,a0,0x20
    80001e60:	60e2                	ld	ra,24(sp)
    80001e62:	6442                	ld	s0,16(sp)
    80001e64:	64a2                	ld	s1,8(sp)
    80001e66:	6105                	addi	sp,sp,32
    80001e68:	8082                	ret

0000000080001e6a <binit>:
  struct buf head;
} bcache;

void
binit(void)
{
    80001e6a:	7179                	addi	sp,sp,-48
    80001e6c:	f406                	sd	ra,40(sp)
    80001e6e:	f022                	sd	s0,32(sp)
    80001e70:	ec26                	sd	s1,24(sp)
    80001e72:	e84a                	sd	s2,16(sp)
    80001e74:	e44e                	sd	s3,8(sp)
    80001e76:	e052                	sd	s4,0(sp)
    80001e78:	1800                	addi	s0,sp,48
  struct buf *b;

  initlock(&bcache.lock, "bcache");
    80001e7a:	00005597          	auipc	a1,0x5
    80001e7e:	55658593          	addi	a1,a1,1366 # 800073d0 <etext+0x3d0>
    80001e82:	00007517          	auipc	a0,0x7
    80001e86:	d1650513          	addi	a0,a0,-746 # 80008b98 <bcache>
    80001e8a:	2c7030ef          	jal	80005950 <initlock>

  // Create linked list of buffers
  bcache.head.prev = &bcache.head;
    80001e8e:	0000f797          	auipc	a5,0xf
    80001e92:	d0a78793          	addi	a5,a5,-758 # 80010b98 <bcache+0x8000>
    80001e96:	0000f717          	auipc	a4,0xf
    80001e9a:	f6a70713          	addi	a4,a4,-150 # 80010e00 <bcache+0x8268>
    80001e9e:	2ae7b823          	sd	a4,688(a5)
  bcache.head.next = &bcache.head;
    80001ea2:	2ae7bc23          	sd	a4,696(a5)
  for(b = bcache.buf; b < bcache.buf+NBUF; b++){
    80001ea6:	00007497          	auipc	s1,0x7
    80001eaa:	d0a48493          	addi	s1,s1,-758 # 80008bb0 <bcache+0x18>
    b->next = bcache.head.next;
    80001eae:	893e                	mv	s2,a5
    b->prev = &bcache.head;
    80001eb0:	89ba                	mv	s3,a4
    initsleeplock(&b->lock, "buffer");
    80001eb2:	00005a17          	auipc	s4,0x5
    80001eb6:	526a0a13          	addi	s4,s4,1318 # 800073d8 <etext+0x3d8>
    b->next = bcache.head.next;
    80001eba:	2b893783          	ld	a5,696(s2)
    80001ebe:	e8bc                	sd	a5,80(s1)
    b->prev = &bcache.head;
    80001ec0:	0534b423          	sd	s3,72(s1)
    initsleeplock(&b->lock, "buffer");
    80001ec4:	85d2                	mv	a1,s4
    80001ec6:	01048513          	addi	a0,s1,16
    80001eca:	380010ef          	jal	8000324a <initsleeplock>
    bcache.head.next->prev = b;
    80001ece:	2b893783          	ld	a5,696(s2)
    80001ed2:	e7a4                	sd	s1,72(a5)
    bcache.head.next = b;
    80001ed4:	2a993c23          	sd	s1,696(s2)
  for(b = bcache.buf; b < bcache.buf+NBUF; b++){
    80001ed8:	45848493          	addi	s1,s1,1112
    80001edc:	fd349fe3          	bne	s1,s3,80001eba <binit+0x50>
  }
}
    80001ee0:	70a2                	ld	ra,40(sp)
    80001ee2:	7402                	ld	s0,32(sp)
    80001ee4:	64e2                	ld	s1,24(sp)
    80001ee6:	6942                	ld	s2,16(sp)
    80001ee8:	69a2                	ld	s3,8(sp)
    80001eea:	6a02                	ld	s4,0(sp)
    80001eec:	6145                	addi	sp,sp,48
    80001eee:	8082                	ret

0000000080001ef0 <bread>:
}

// Return a locked buf with the contents of the indicated block.
struct buf*
bread(uint dev, uint blockno)
{
    80001ef0:	7179                	addi	sp,sp,-48
    80001ef2:	f406                	sd	ra,40(sp)
    80001ef4:	f022                	sd	s0,32(sp)
    80001ef6:	ec26                	sd	s1,24(sp)
    80001ef8:	e84a                	sd	s2,16(sp)
    80001efa:	e44e                	sd	s3,8(sp)
    80001efc:	1800                	addi	s0,sp,48
    80001efe:	892a                	mv	s2,a0
    80001f00:	89ae                	mv	s3,a1
  acquire(&bcache.lock);
    80001f02:	00007517          	auipc	a0,0x7
    80001f06:	c9650513          	addi	a0,a0,-874 # 80008b98 <bcache>
    80001f0a:	2cb030ef          	jal	800059d4 <acquire>
  for(b = bcache.head.next; b != &bcache.head; b = b->next){
    80001f0e:	0000f497          	auipc	s1,0xf
    80001f12:	f424b483          	ld	s1,-190(s1) # 80010e50 <bcache+0x82b8>
    80001f16:	0000f797          	auipc	a5,0xf
    80001f1a:	eea78793          	addi	a5,a5,-278 # 80010e00 <bcache+0x8268>
    80001f1e:	02f48b63          	beq	s1,a5,80001f54 <bread+0x64>
    80001f22:	873e                	mv	a4,a5
    80001f24:	a021                	j	80001f2c <bread+0x3c>
    80001f26:	68a4                	ld	s1,80(s1)
    80001f28:	02e48663          	beq	s1,a4,80001f54 <bread+0x64>
    if(b->dev == dev && b->blockno == blockno){
    80001f2c:	449c                	lw	a5,8(s1)
    80001f2e:	ff279ce3          	bne	a5,s2,80001f26 <bread+0x36>
    80001f32:	44dc                	lw	a5,12(s1)
    80001f34:	ff3799e3          	bne	a5,s3,80001f26 <bread+0x36>
      b->refcnt++;
    80001f38:	40bc                	lw	a5,64(s1)
    80001f3a:	2785                	addiw	a5,a5,1
    80001f3c:	c0bc                	sw	a5,64(s1)
      release(&bcache.lock);
    80001f3e:	00007517          	auipc	a0,0x7
    80001f42:	c5a50513          	addi	a0,a0,-934 # 80008b98 <bcache>
    80001f46:	323030ef          	jal	80005a68 <release>
      acquiresleep(&b->lock);
    80001f4a:	01048513          	addi	a0,s1,16
    80001f4e:	332010ef          	jal	80003280 <acquiresleep>
      return b;
    80001f52:	a889                	j	80001fa4 <bread+0xb4>
  for(b = bcache.head.prev; b != &bcache.head; b = b->prev){
    80001f54:	0000f497          	auipc	s1,0xf
    80001f58:	ef44b483          	ld	s1,-268(s1) # 80010e48 <bcache+0x82b0>
    80001f5c:	0000f797          	auipc	a5,0xf
    80001f60:	ea478793          	addi	a5,a5,-348 # 80010e00 <bcache+0x8268>
    80001f64:	00f48863          	beq	s1,a5,80001f74 <bread+0x84>
    80001f68:	873e                	mv	a4,a5
    if(b->refcnt == 0) {
    80001f6a:	40bc                	lw	a5,64(s1)
    80001f6c:	cb91                	beqz	a5,80001f80 <bread+0x90>
  for(b = bcache.head.prev; b != &bcache.head; b = b->prev){
    80001f6e:	64a4                	ld	s1,72(s1)
    80001f70:	fee49de3          	bne	s1,a4,80001f6a <bread+0x7a>
  panic("bget: no buffers");
    80001f74:	00005517          	auipc	a0,0x5
    80001f78:	46c50513          	addi	a0,a0,1132 # 800073e0 <etext+0x3e0>
    80001f7c:	72a030ef          	jal	800056a6 <panic>
      b->dev = dev;
    80001f80:	0124a423          	sw	s2,8(s1)
      b->blockno = blockno;
    80001f84:	0134a623          	sw	s3,12(s1)
      b->valid = 0;
    80001f88:	0004a023          	sw	zero,0(s1)
      b->refcnt = 1;
    80001f8c:	4785                	li	a5,1
    80001f8e:	c0bc                	sw	a5,64(s1)
      release(&bcache.lock);
    80001f90:	00007517          	auipc	a0,0x7
    80001f94:	c0850513          	addi	a0,a0,-1016 # 80008b98 <bcache>
    80001f98:	2d1030ef          	jal	80005a68 <release>
      acquiresleep(&b->lock);
    80001f9c:	01048513          	addi	a0,s1,16
    80001fa0:	2e0010ef          	jal	80003280 <acquiresleep>
  struct buf *b;

  b = bget(dev, blockno);
  if(!b->valid) {
    80001fa4:	409c                	lw	a5,0(s1)
    80001fa6:	cb89                	beqz	a5,80001fb8 <bread+0xc8>
    virtio_disk_rw(b, 0);
    b->valid = 1;
  }
  return b;
}
    80001fa8:	8526                	mv	a0,s1
    80001faa:	70a2                	ld	ra,40(sp)
    80001fac:	7402                	ld	s0,32(sp)
    80001fae:	64e2                	ld	s1,24(sp)
    80001fb0:	6942                	ld	s2,16(sp)
    80001fb2:	69a2                	ld	s3,8(sp)
    80001fb4:	6145                	addi	sp,sp,48
    80001fb6:	8082                	ret
    virtio_disk_rw(b, 0);
    80001fb8:	4581                	li	a1,0
    80001fba:	8526                	mv	a0,s1
    80001fbc:	4b5020ef          	jal	80004c70 <virtio_disk_rw>
    b->valid = 1;
    80001fc0:	4785                	li	a5,1
    80001fc2:	c09c                	sw	a5,0(s1)
  return b;
    80001fc4:	b7d5                	j	80001fa8 <bread+0xb8>

0000000080001fc6 <bwrite>:

// Write b's contents to disk.  Must be locked.
void
bwrite(struct buf *b)
{
    80001fc6:	1101                	addi	sp,sp,-32
    80001fc8:	ec06                	sd	ra,24(sp)
    80001fca:	e822                	sd	s0,16(sp)
    80001fcc:	e426                	sd	s1,8(sp)
    80001fce:	1000                	addi	s0,sp,32
    80001fd0:	84aa                	mv	s1,a0
  if(!holdingsleep(&b->lock))
    80001fd2:	0541                	addi	a0,a0,16
    80001fd4:	32a010ef          	jal	800032fe <holdingsleep>
    80001fd8:	c911                	beqz	a0,80001fec <bwrite+0x26>
    panic("bwrite");
  virtio_disk_rw(b, 1);
    80001fda:	4585                	li	a1,1
    80001fdc:	8526                	mv	a0,s1
    80001fde:	493020ef          	jal	80004c70 <virtio_disk_rw>
}
    80001fe2:	60e2                	ld	ra,24(sp)
    80001fe4:	6442                	ld	s0,16(sp)
    80001fe6:	64a2                	ld	s1,8(sp)
    80001fe8:	6105                	addi	sp,sp,32
    80001fea:	8082                	ret
    panic("bwrite");
    80001fec:	00005517          	auipc	a0,0x5
    80001ff0:	40c50513          	addi	a0,a0,1036 # 800073f8 <etext+0x3f8>
    80001ff4:	6b2030ef          	jal	800056a6 <panic>

0000000080001ff8 <brelse>:

// Release a locked buffer.
// Move to the head of the most-recently-used list.
void
brelse(struct buf *b)
{
    80001ff8:	1101                	addi	sp,sp,-32
    80001ffa:	ec06                	sd	ra,24(sp)
    80001ffc:	e822                	sd	s0,16(sp)
    80001ffe:	e426                	sd	s1,8(sp)
    80002000:	e04a                	sd	s2,0(sp)
    80002002:	1000                	addi	s0,sp,32
    80002004:	84aa                	mv	s1,a0
  if(!holdingsleep(&b->lock))
    80002006:	01050913          	addi	s2,a0,16
    8000200a:	854a                	mv	a0,s2
    8000200c:	2f2010ef          	jal	800032fe <holdingsleep>
    80002010:	c125                	beqz	a0,80002070 <brelse+0x78>
    panic("brelse");

  releasesleep(&b->lock);
    80002012:	854a                	mv	a0,s2
    80002014:	2b2010ef          	jal	800032c6 <releasesleep>

  acquire(&bcache.lock);
    80002018:	00007517          	auipc	a0,0x7
    8000201c:	b8050513          	addi	a0,a0,-1152 # 80008b98 <bcache>
    80002020:	1b5030ef          	jal	800059d4 <acquire>
  b->refcnt--;
    80002024:	40bc                	lw	a5,64(s1)
    80002026:	37fd                	addiw	a5,a5,-1
    80002028:	c0bc                	sw	a5,64(s1)
  if (b->refcnt == 0) {
    8000202a:	e79d                	bnez	a5,80002058 <brelse+0x60>
    // no one is waiting for it.
    b->next->prev = b->prev;
    8000202c:	68b8                	ld	a4,80(s1)
    8000202e:	64bc                	ld	a5,72(s1)
    80002030:	e73c                	sd	a5,72(a4)
    b->prev->next = b->next;
    80002032:	68b8                	ld	a4,80(s1)
    80002034:	ebb8                	sd	a4,80(a5)
    b->next = bcache.head.next;
    80002036:	0000f797          	auipc	a5,0xf
    8000203a:	b6278793          	addi	a5,a5,-1182 # 80010b98 <bcache+0x8000>
    8000203e:	2b87b703          	ld	a4,696(a5)
    80002042:	e8b8                	sd	a4,80(s1)
    b->prev = &bcache.head;
    80002044:	0000f717          	auipc	a4,0xf
    80002048:	dbc70713          	addi	a4,a4,-580 # 80010e00 <bcache+0x8268>
    8000204c:	e4b8                	sd	a4,72(s1)
    bcache.head.next->prev = b;
    8000204e:	2b87b703          	ld	a4,696(a5)
    80002052:	e724                	sd	s1,72(a4)
    bcache.head.next = b;
    80002054:	2a97bc23          	sd	s1,696(a5)
  }
  
  release(&bcache.lock);
    80002058:	00007517          	auipc	a0,0x7
    8000205c:	b4050513          	addi	a0,a0,-1216 # 80008b98 <bcache>
    80002060:	209030ef          	jal	80005a68 <release>
}
    80002064:	60e2                	ld	ra,24(sp)
    80002066:	6442                	ld	s0,16(sp)
    80002068:	64a2                	ld	s1,8(sp)
    8000206a:	6902                	ld	s2,0(sp)
    8000206c:	6105                	addi	sp,sp,32
    8000206e:	8082                	ret
    panic("brelse");
    80002070:	00005517          	auipc	a0,0x5
    80002074:	39050513          	addi	a0,a0,912 # 80007400 <etext+0x400>
    80002078:	62e030ef          	jal	800056a6 <panic>

000000008000207c <bpin>:

void
bpin(struct buf *b) {
    8000207c:	1101                	addi	sp,sp,-32
    8000207e:	ec06                	sd	ra,24(sp)
    80002080:	e822                	sd	s0,16(sp)
    80002082:	e426                	sd	s1,8(sp)
    80002084:	1000                	addi	s0,sp,32
    80002086:	84aa                	mv	s1,a0
  acquire(&bcache.lock);
    80002088:	00007517          	auipc	a0,0x7
    8000208c:	b1050513          	addi	a0,a0,-1264 # 80008b98 <bcache>
    80002090:	145030ef          	jal	800059d4 <acquire>
  b->refcnt++;
    80002094:	40bc                	lw	a5,64(s1)
    80002096:	2785                	addiw	a5,a5,1
    80002098:	c0bc                	sw	a5,64(s1)
  release(&bcache.lock);
    8000209a:	00007517          	auipc	a0,0x7
    8000209e:	afe50513          	addi	a0,a0,-1282 # 80008b98 <bcache>
    800020a2:	1c7030ef          	jal	80005a68 <release>
}
    800020a6:	60e2                	ld	ra,24(sp)
    800020a8:	6442                	ld	s0,16(sp)
    800020aa:	64a2                	ld	s1,8(sp)
    800020ac:	6105                	addi	sp,sp,32
    800020ae:	8082                	ret

00000000800020b0 <bunpin>:

void
bunpin(struct buf *b) {
    800020b0:	1101                	addi	sp,sp,-32
    800020b2:	ec06                	sd	ra,24(sp)
    800020b4:	e822                	sd	s0,16(sp)
    800020b6:	e426                	sd	s1,8(sp)
    800020b8:	1000                	addi	s0,sp,32
    800020ba:	84aa                	mv	s1,a0
  acquire(&bcache.lock);
    800020bc:	00007517          	auipc	a0,0x7
    800020c0:	adc50513          	addi	a0,a0,-1316 # 80008b98 <bcache>
    800020c4:	111030ef          	jal	800059d4 <acquire>
  b->refcnt--;
    800020c8:	40bc                	lw	a5,64(s1)
    800020ca:	37fd                	addiw	a5,a5,-1
    800020cc:	c0bc                	sw	a5,64(s1)
  release(&bcache.lock);
    800020ce:	00007517          	auipc	a0,0x7
    800020d2:	aca50513          	addi	a0,a0,-1334 # 80008b98 <bcache>
    800020d6:	193030ef          	jal	80005a68 <release>
}
    800020da:	60e2                	ld	ra,24(sp)
    800020dc:	6442                	ld	s0,16(sp)
    800020de:	64a2                	ld	s1,8(sp)
    800020e0:	6105                	addi	sp,sp,32
    800020e2:	8082                	ret

00000000800020e4 <bfree>:
}

// Free a disk block.
static void
bfree(int dev, uint b)
{
    800020e4:	1101                	addi	sp,sp,-32
    800020e6:	ec06                	sd	ra,24(sp)
    800020e8:	e822                	sd	s0,16(sp)
    800020ea:	e426                	sd	s1,8(sp)
    800020ec:	e04a                	sd	s2,0(sp)
    800020ee:	1000                	addi	s0,sp,32
    800020f0:	84ae                	mv	s1,a1
  struct buf *bp;
  int bi, m;

  bp = bread(dev, BBLOCK(b, sb));
    800020f2:	00d5d79b          	srliw	a5,a1,0xd
    800020f6:	0000f597          	auipc	a1,0xf
    800020fa:	17e5a583          	lw	a1,382(a1) # 80011274 <sb+0x1c>
    800020fe:	9dbd                	addw	a1,a1,a5
    80002100:	df1ff0ef          	jal	80001ef0 <bread>
  bi = b % BPB;
  m = 1 << (bi % 8);
    80002104:	0074f713          	andi	a4,s1,7
    80002108:	4785                	li	a5,1
    8000210a:	00e797bb          	sllw	a5,a5,a4
  bi = b % BPB;
    8000210e:	14ce                	slli	s1,s1,0x33
  if((bp->data[bi/8] & m) == 0)
    80002110:	90d9                	srli	s1,s1,0x36
    80002112:	00950733          	add	a4,a0,s1
    80002116:	05874703          	lbu	a4,88(a4)
    8000211a:	00e7f6b3          	and	a3,a5,a4
    8000211e:	c29d                	beqz	a3,80002144 <bfree+0x60>
    80002120:	892a                	mv	s2,a0
    panic("freeing free block");
  bp->data[bi/8] &= ~m;
    80002122:	94aa                	add	s1,s1,a0
    80002124:	fff7c793          	not	a5,a5
    80002128:	8f7d                	and	a4,a4,a5
    8000212a:	04e48c23          	sb	a4,88(s1)
  log_write(bp);
    8000212e:	04c010ef          	jal	8000317a <log_write>
  brelse(bp);
    80002132:	854a                	mv	a0,s2
    80002134:	ec5ff0ef          	jal	80001ff8 <brelse>
}
    80002138:	60e2                	ld	ra,24(sp)
    8000213a:	6442                	ld	s0,16(sp)
    8000213c:	64a2                	ld	s1,8(sp)
    8000213e:	6902                	ld	s2,0(sp)
    80002140:	6105                	addi	sp,sp,32
    80002142:	8082                	ret
    panic("freeing free block");
    80002144:	00005517          	auipc	a0,0x5
    80002148:	2c450513          	addi	a0,a0,708 # 80007408 <etext+0x408>
    8000214c:	55a030ef          	jal	800056a6 <panic>

0000000080002150 <balloc>:
{
    80002150:	715d                	addi	sp,sp,-80
    80002152:	e486                	sd	ra,72(sp)
    80002154:	e0a2                	sd	s0,64(sp)
    80002156:	fc26                	sd	s1,56(sp)
    80002158:	0880                	addi	s0,sp,80
  for(b = 0; b < sb.size; b += BPB){
    8000215a:	0000f797          	auipc	a5,0xf
    8000215e:	1027a783          	lw	a5,258(a5) # 8001125c <sb+0x4>
    80002162:	0e078863          	beqz	a5,80002252 <balloc+0x102>
    80002166:	f84a                	sd	s2,48(sp)
    80002168:	f44e                	sd	s3,40(sp)
    8000216a:	f052                	sd	s4,32(sp)
    8000216c:	ec56                	sd	s5,24(sp)
    8000216e:	e85a                	sd	s6,16(sp)
    80002170:	e45e                	sd	s7,8(sp)
    80002172:	e062                	sd	s8,0(sp)
    80002174:	8baa                	mv	s7,a0
    80002176:	4a81                	li	s5,0
    bp = bread(dev, BBLOCK(b, sb));
    80002178:	0000fb17          	auipc	s6,0xf
    8000217c:	0e0b0b13          	addi	s6,s6,224 # 80011258 <sb>
      m = 1 << (bi % 8);
    80002180:	4985                	li	s3,1
    for(bi = 0; bi < BPB && b + bi < sb.size; bi++){
    80002182:	6a09                	lui	s4,0x2
  for(b = 0; b < sb.size; b += BPB){
    80002184:	6c09                	lui	s8,0x2
    80002186:	a09d                	j	800021ec <balloc+0x9c>
        bp->data[bi/8] |= m;  // Mark block in use.
    80002188:	97ca                	add	a5,a5,s2
    8000218a:	8e55                	or	a2,a2,a3
    8000218c:	04c78c23          	sb	a2,88(a5)
        log_write(bp);
    80002190:	854a                	mv	a0,s2
    80002192:	7e9000ef          	jal	8000317a <log_write>
        brelse(bp);
    80002196:	854a                	mv	a0,s2
    80002198:	e61ff0ef          	jal	80001ff8 <brelse>
  bp = bread(dev, bno);
    8000219c:	85a6                	mv	a1,s1
    8000219e:	855e                	mv	a0,s7
    800021a0:	d51ff0ef          	jal	80001ef0 <bread>
    800021a4:	892a                	mv	s2,a0
  memset(bp->data, 0, BSIZE);
    800021a6:	40000613          	li	a2,1024
    800021aa:	4581                	li	a1,0
    800021ac:	05850513          	addi	a0,a0,88
    800021b0:	f9ffd0ef          	jal	8000014e <memset>
  log_write(bp);
    800021b4:	854a                	mv	a0,s2
    800021b6:	7c5000ef          	jal	8000317a <log_write>
  brelse(bp);
    800021ba:	854a                	mv	a0,s2
    800021bc:	e3dff0ef          	jal	80001ff8 <brelse>
}
    800021c0:	7942                	ld	s2,48(sp)
    800021c2:	79a2                	ld	s3,40(sp)
    800021c4:	7a02                	ld	s4,32(sp)
    800021c6:	6ae2                	ld	s5,24(sp)
    800021c8:	6b42                	ld	s6,16(sp)
    800021ca:	6ba2                	ld	s7,8(sp)
    800021cc:	6c02                	ld	s8,0(sp)
}
    800021ce:	8526                	mv	a0,s1
    800021d0:	60a6                	ld	ra,72(sp)
    800021d2:	6406                	ld	s0,64(sp)
    800021d4:	74e2                	ld	s1,56(sp)
    800021d6:	6161                	addi	sp,sp,80
    800021d8:	8082                	ret
    brelse(bp);
    800021da:	854a                	mv	a0,s2
    800021dc:	e1dff0ef          	jal	80001ff8 <brelse>
  for(b = 0; b < sb.size; b += BPB){
    800021e0:	015c0abb          	addw	s5,s8,s5
    800021e4:	004b2783          	lw	a5,4(s6)
    800021e8:	04fafe63          	bgeu	s5,a5,80002244 <balloc+0xf4>
    bp = bread(dev, BBLOCK(b, sb));
    800021ec:	41fad79b          	sraiw	a5,s5,0x1f
    800021f0:	0137d79b          	srliw	a5,a5,0x13
    800021f4:	015787bb          	addw	a5,a5,s5
    800021f8:	40d7d79b          	sraiw	a5,a5,0xd
    800021fc:	01cb2583          	lw	a1,28(s6)
    80002200:	9dbd                	addw	a1,a1,a5
    80002202:	855e                	mv	a0,s7
    80002204:	cedff0ef          	jal	80001ef0 <bread>
    80002208:	892a                	mv	s2,a0
    for(bi = 0; bi < BPB && b + bi < sb.size; bi++){
    8000220a:	004b2503          	lw	a0,4(s6)
    8000220e:	84d6                	mv	s1,s5
    80002210:	4701                	li	a4,0
    80002212:	fca4f4e3          	bgeu	s1,a0,800021da <balloc+0x8a>
      m = 1 << (bi % 8);
    80002216:	00777693          	andi	a3,a4,7
    8000221a:	00d996bb          	sllw	a3,s3,a3
      if((bp->data[bi/8] & m) == 0){  // Is block free?
    8000221e:	41f7579b          	sraiw	a5,a4,0x1f
    80002222:	01d7d79b          	srliw	a5,a5,0x1d
    80002226:	9fb9                	addw	a5,a5,a4
    80002228:	4037d79b          	sraiw	a5,a5,0x3
    8000222c:	00f90633          	add	a2,s2,a5
    80002230:	05864603          	lbu	a2,88(a2)
    80002234:	00c6f5b3          	and	a1,a3,a2
    80002238:	d9a1                	beqz	a1,80002188 <balloc+0x38>
    for(bi = 0; bi < BPB && b + bi < sb.size; bi++){
    8000223a:	2705                	addiw	a4,a4,1
    8000223c:	2485                	addiw	s1,s1,1
    8000223e:	fd471ae3          	bne	a4,s4,80002212 <balloc+0xc2>
    80002242:	bf61                	j	800021da <balloc+0x8a>
    80002244:	7942                	ld	s2,48(sp)
    80002246:	79a2                	ld	s3,40(sp)
    80002248:	7a02                	ld	s4,32(sp)
    8000224a:	6ae2                	ld	s5,24(sp)
    8000224c:	6b42                	ld	s6,16(sp)
    8000224e:	6ba2                	ld	s7,8(sp)
    80002250:	6c02                	ld	s8,0(sp)
  printf("balloc: out of blocks\n");
    80002252:	00005517          	auipc	a0,0x5
    80002256:	1ce50513          	addi	a0,a0,462 # 80007420 <etext+0x420>
    8000225a:	17c030ef          	jal	800053d6 <printf>
  return 0;
    8000225e:	4481                	li	s1,0
    80002260:	b7bd                	j	800021ce <balloc+0x7e>

0000000080002262 <bmap>:
// Return the disk block address of the nth block in inode ip.
// If there is no such block, bmap allocates one.
// returns 0 if out of disk space.
static uint
bmap(struct inode *ip, uint bn)
{
    80002262:	7139                	addi	sp,sp,-64
    80002264:	fc06                	sd	ra,56(sp)
    80002266:	f822                	sd	s0,48(sp)
    80002268:	f426                	sd	s1,40(sp)
    8000226a:	f04a                	sd	s2,32(sp)
    8000226c:	ec4e                	sd	s3,24(sp)
    8000226e:	0080                	addi	s0,sp,64
    80002270:	89aa                	mv	s3,a0
  uint addr, *a;
  struct buf *bp;

  if(bn < NDIRECT){
    80002272:	47a9                	li	a5,10
    80002274:	02b7eb63          	bltu	a5,a1,800022aa <bmap+0x48>
    if((addr = ip->addrs[bn]) == 0){
    80002278:	02059793          	slli	a5,a1,0x20
    8000227c:	01e7d593          	srli	a1,a5,0x1e
    80002280:	00b504b3          	add	s1,a0,a1
    80002284:	0504a903          	lw	s2,80(s1)
    80002288:	00090a63          	beqz	s2,8000229c <bmap+0x3a>
//     return addr;
//   }   


  panic("bmap: out of range");
}
    8000228c:	854a                	mv	a0,s2
    8000228e:	70e2                	ld	ra,56(sp)
    80002290:	7442                	ld	s0,48(sp)
    80002292:	74a2                	ld	s1,40(sp)
    80002294:	7902                	ld	s2,32(sp)
    80002296:	69e2                	ld	s3,24(sp)
    80002298:	6121                	addi	sp,sp,64
    8000229a:	8082                	ret
      addr = balloc(ip->dev);
    8000229c:	4108                	lw	a0,0(a0)
    8000229e:	eb3ff0ef          	jal	80002150 <balloc>
    800022a2:	892a                	mv	s2,a0
      if(addr == 0)
    800022a4:	d565                	beqz	a0,8000228c <bmap+0x2a>
      ip->addrs[bn] = addr;
    800022a6:	c8a8                	sw	a0,80(s1)
    800022a8:	b7d5                	j	8000228c <bmap+0x2a>
  bn -= NDIRECT;
    800022aa:	ff55849b          	addiw	s1,a1,-11
  if(bn < NINDIRECT){
    800022ae:	0ff00793          	li	a5,255
    800022b2:	0697e163          	bltu	a5,s1,80002314 <bmap+0xb2>
    if((addr = ip->addrs[NDIRECT]) == 0){
    800022b6:	07c52903          	lw	s2,124(a0)
    800022ba:	00091b63          	bnez	s2,800022d0 <bmap+0x6e>
      addr = balloc(ip->dev);
    800022be:	4108                	lw	a0,0(a0)
    800022c0:	e91ff0ef          	jal	80002150 <balloc>
    800022c4:	892a                	mv	s2,a0
      if(addr == 0)
    800022c6:	d179                	beqz	a0,8000228c <bmap+0x2a>
    800022c8:	e852                	sd	s4,16(sp)
      ip->addrs[NDIRECT] = addr;
    800022ca:	06a9ae23          	sw	a0,124(s3)
    800022ce:	a011                	j	800022d2 <bmap+0x70>
    800022d0:	e852                	sd	s4,16(sp)
    bp = bread(ip->dev, addr);
    800022d2:	85ca                	mv	a1,s2
    800022d4:	0009a503          	lw	a0,0(s3)
    800022d8:	c19ff0ef          	jal	80001ef0 <bread>
    800022dc:	8a2a                	mv	s4,a0
    a = (uint*)bp->data;
    800022de:	05850793          	addi	a5,a0,88
    if((addr = a[bn]) == 0){
    800022e2:	02049713          	slli	a4,s1,0x20
    800022e6:	01e75493          	srli	s1,a4,0x1e
    800022ea:	94be                	add	s1,s1,a5
    800022ec:	0004a903          	lw	s2,0(s1)
    800022f0:	00090763          	beqz	s2,800022fe <bmap+0x9c>
    brelse(bp);
    800022f4:	8552                	mv	a0,s4
    800022f6:	d03ff0ef          	jal	80001ff8 <brelse>
    return addr;
    800022fa:	6a42                	ld	s4,16(sp)
    800022fc:	bf41                	j	8000228c <bmap+0x2a>
      addr = balloc(ip->dev);
    800022fe:	0009a503          	lw	a0,0(s3)
    80002302:	e4fff0ef          	jal	80002150 <balloc>
    80002306:	892a                	mv	s2,a0
      if(addr){
    80002308:	d575                	beqz	a0,800022f4 <bmap+0x92>
        a[bn] = addr;
    8000230a:	c088                	sw	a0,0(s1)
        log_write(bp);
    8000230c:	8552                	mv	a0,s4
    8000230e:	66d000ef          	jal	8000317a <log_write>
    80002312:	b7cd                	j	800022f4 <bmap+0x92>
  bn -= NINDIRECT;
    80002314:	ef55849b          	addiw	s1,a1,-267
  if(bn < DOUBLEINDIRECT){
    80002318:	67c1                	lui	a5,0x10
    8000231a:	0af4f363          	bgeu	s1,a5,800023c0 <bmap+0x15e>
    if((addr = ip->addrs[NDIRECT+1]) == 0){
    8000231e:	08052903          	lw	s2,128(a0)
    80002322:	00091c63          	bnez	s2,8000233a <bmap+0xd8>
      addr = balloc(ip->dev);
    80002326:	4108                	lw	a0,0(a0)
    80002328:	e29ff0ef          	jal	80002150 <balloc>
    8000232c:	892a                	mv	s2,a0
      if(addr == 0)
    8000232e:	dd39                	beqz	a0,8000228c <bmap+0x2a>
    80002330:	e852                	sd	s4,16(sp)
    80002332:	e456                	sd	s5,8(sp)
      ip->addrs[NDIRECT+1] = addr;
    80002334:	08a9a023          	sw	a0,128(s3)
    80002338:	a019                	j	8000233e <bmap+0xdc>
    8000233a:	e852                	sd	s4,16(sp)
    8000233c:	e456                	sd	s5,8(sp)
    bp = bread(ip->dev, addr);
    8000233e:	85ca                	mv	a1,s2
    80002340:	0009a503          	lw	a0,0(s3)
    80002344:	badff0ef          	jal	80001ef0 <bread>
    80002348:	892a                	mv	s2,a0
    a = (uint*)bp->data;
    8000234a:	05850a93          	addi	s5,a0,88
    if((addr = a[bn/NINDIRECT]) == 0){
    8000234e:	0084d79b          	srliw	a5,s1,0x8
    80002352:	078a                	slli	a5,a5,0x2
    80002354:	9abe                	add	s5,s5,a5
    80002356:	000aaa03          	lw	s4,0(s5)
    8000235a:	020a0c63          	beqz	s4,80002392 <bmap+0x130>
    brelse(bp);
    8000235e:	854a                	mv	a0,s2
    80002360:	c99ff0ef          	jal	80001ff8 <brelse>
    bp = bread(ip->dev, addr);
    80002364:	85d2                	mv	a1,s4
    80002366:	0009a503          	lw	a0,0(s3)
    8000236a:	b87ff0ef          	jal	80001ef0 <bread>
    8000236e:	8a2a                	mv	s4,a0
    a = (uint*)bp->data;
    80002370:	05850793          	addi	a5,a0,88
    if((addr = a[bn%NINDIRECT]) == 0){
    80002374:	0ff4f593          	zext.b	a1,s1
    80002378:	058a                	slli	a1,a1,0x2
    8000237a:	00b784b3          	add	s1,a5,a1
    8000237e:	0004a903          	lw	s2,0(s1)
    80002382:	02090463          	beqz	s2,800023aa <bmap+0x148>
    brelse(bp);
    80002386:	8552                	mv	a0,s4
    80002388:	c71ff0ef          	jal	80001ff8 <brelse>
    return addr;
    8000238c:	6a42                	ld	s4,16(sp)
    8000238e:	6aa2                	ld	s5,8(sp)
    80002390:	bdf5                	j	8000228c <bmap+0x2a>
      addr = balloc(ip->dev);
    80002392:	0009a503          	lw	a0,0(s3)
    80002396:	dbbff0ef          	jal	80002150 <balloc>
    8000239a:	8a2a                	mv	s4,a0
      if(addr){
    8000239c:	d169                	beqz	a0,8000235e <bmap+0xfc>
        a[bn/NINDIRECT] = addr;
    8000239e:	00aaa023          	sw	a0,0(s5)
        log_write(bp);
    800023a2:	854a                	mv	a0,s2
    800023a4:	5d7000ef          	jal	8000317a <log_write>
    800023a8:	bf5d                	j	8000235e <bmap+0xfc>
      addr = balloc(ip->dev);
    800023aa:	0009a503          	lw	a0,0(s3)
    800023ae:	da3ff0ef          	jal	80002150 <balloc>
    800023b2:	892a                	mv	s2,a0
      if(addr){
    800023b4:	d969                	beqz	a0,80002386 <bmap+0x124>
        a[bn%NINDIRECT] = addr;
    800023b6:	c088                	sw	a0,0(s1)
        log_write(bp);
    800023b8:	8552                	mv	a0,s4
    800023ba:	5c1000ef          	jal	8000317a <log_write>
    800023be:	b7e1                	j	80002386 <bmap+0x124>
    800023c0:	e852                	sd	s4,16(sp)
    800023c2:	e456                	sd	s5,8(sp)
  panic("bmap: out of range");
    800023c4:	00005517          	auipc	a0,0x5
    800023c8:	07450513          	addi	a0,a0,116 # 80007438 <etext+0x438>
    800023cc:	2da030ef          	jal	800056a6 <panic>

00000000800023d0 <iget>:
{
    800023d0:	7179                	addi	sp,sp,-48
    800023d2:	f406                	sd	ra,40(sp)
    800023d4:	f022                	sd	s0,32(sp)
    800023d6:	ec26                	sd	s1,24(sp)
    800023d8:	e84a                	sd	s2,16(sp)
    800023da:	e44e                	sd	s3,8(sp)
    800023dc:	e052                	sd	s4,0(sp)
    800023de:	1800                	addi	s0,sp,48
    800023e0:	89aa                	mv	s3,a0
    800023e2:	8a2e                	mv	s4,a1
  acquire(&itable.lock);
    800023e4:	0000f517          	auipc	a0,0xf
    800023e8:	e9450513          	addi	a0,a0,-364 # 80011278 <itable>
    800023ec:	5e8030ef          	jal	800059d4 <acquire>
  empty = 0;
    800023f0:	4901                	li	s2,0
  for(ip = &itable.inode[0]; ip < &itable.inode[NINODE]; ip++){
    800023f2:	0000f497          	auipc	s1,0xf
    800023f6:	e9e48493          	addi	s1,s1,-354 # 80011290 <itable+0x18>
    800023fa:	00011697          	auipc	a3,0x11
    800023fe:	92668693          	addi	a3,a3,-1754 # 80012d20 <log>
    80002402:	a039                	j	80002410 <iget+0x40>
    if(empty == 0 && ip->ref == 0)    // Remember empty slot.
    80002404:	02090963          	beqz	s2,80002436 <iget+0x66>
  for(ip = &itable.inode[0]; ip < &itable.inode[NINODE]; ip++){
    80002408:	08848493          	addi	s1,s1,136
    8000240c:	02d48863          	beq	s1,a3,8000243c <iget+0x6c>
    if(ip->ref > 0 && ip->dev == dev && ip->inum == inum){
    80002410:	449c                	lw	a5,8(s1)
    80002412:	fef059e3          	blez	a5,80002404 <iget+0x34>
    80002416:	4098                	lw	a4,0(s1)
    80002418:	ff3716e3          	bne	a4,s3,80002404 <iget+0x34>
    8000241c:	40d8                	lw	a4,4(s1)
    8000241e:	ff4713e3          	bne	a4,s4,80002404 <iget+0x34>
      ip->ref++;
    80002422:	2785                	addiw	a5,a5,1 # 10001 <_entry-0x7ffeffff>
    80002424:	c49c                	sw	a5,8(s1)
      release(&itable.lock);
    80002426:	0000f517          	auipc	a0,0xf
    8000242a:	e5250513          	addi	a0,a0,-430 # 80011278 <itable>
    8000242e:	63a030ef          	jal	80005a68 <release>
      return ip;
    80002432:	8926                	mv	s2,s1
    80002434:	a02d                	j	8000245e <iget+0x8e>
    if(empty == 0 && ip->ref == 0)    // Remember empty slot.
    80002436:	fbe9                	bnez	a5,80002408 <iget+0x38>
      empty = ip;
    80002438:	8926                	mv	s2,s1
    8000243a:	b7f9                	j	80002408 <iget+0x38>
  if(empty == 0)
    8000243c:	02090a63          	beqz	s2,80002470 <iget+0xa0>
  ip->dev = dev;
    80002440:	01392023          	sw	s3,0(s2)
  ip->inum = inum;
    80002444:	01492223          	sw	s4,4(s2)
  ip->ref = 1;
    80002448:	4785                	li	a5,1
    8000244a:	00f92423          	sw	a5,8(s2)
  ip->valid = 0;
    8000244e:	04092023          	sw	zero,64(s2)
  release(&itable.lock);
    80002452:	0000f517          	auipc	a0,0xf
    80002456:	e2650513          	addi	a0,a0,-474 # 80011278 <itable>
    8000245a:	60e030ef          	jal	80005a68 <release>
}
    8000245e:	854a                	mv	a0,s2
    80002460:	70a2                	ld	ra,40(sp)
    80002462:	7402                	ld	s0,32(sp)
    80002464:	64e2                	ld	s1,24(sp)
    80002466:	6942                	ld	s2,16(sp)
    80002468:	69a2                	ld	s3,8(sp)
    8000246a:	6a02                	ld	s4,0(sp)
    8000246c:	6145                	addi	sp,sp,48
    8000246e:	8082                	ret
    panic("iget: no inodes");
    80002470:	00005517          	auipc	a0,0x5
    80002474:	fe050513          	addi	a0,a0,-32 # 80007450 <etext+0x450>
    80002478:	22e030ef          	jal	800056a6 <panic>

000000008000247c <fsinit>:
fsinit(int dev) {
    8000247c:	7179                	addi	sp,sp,-48
    8000247e:	f406                	sd	ra,40(sp)
    80002480:	f022                	sd	s0,32(sp)
    80002482:	ec26                	sd	s1,24(sp)
    80002484:	e84a                	sd	s2,16(sp)
    80002486:	e44e                	sd	s3,8(sp)
    80002488:	1800                	addi	s0,sp,48
    8000248a:	892a                	mv	s2,a0
  bp = bread(dev, 1);
    8000248c:	4585                	li	a1,1
    8000248e:	a63ff0ef          	jal	80001ef0 <bread>
    80002492:	84aa                	mv	s1,a0
  memmove(sb, bp->data, sizeof(*sb));
    80002494:	0000f997          	auipc	s3,0xf
    80002498:	dc498993          	addi	s3,s3,-572 # 80011258 <sb>
    8000249c:	02000613          	li	a2,32
    800024a0:	05850593          	addi	a1,a0,88
    800024a4:	854e                	mv	a0,s3
    800024a6:	d0dfd0ef          	jal	800001b2 <memmove>
  brelse(bp);
    800024aa:	8526                	mv	a0,s1
    800024ac:	b4dff0ef          	jal	80001ff8 <brelse>
  if(sb.magic != FSMAGIC)
    800024b0:	0009a703          	lw	a4,0(s3)
    800024b4:	102037b7          	lui	a5,0x10203
    800024b8:	04078793          	addi	a5,a5,64 # 10203040 <_entry-0x6fdfcfc0>
    800024bc:	02f71063          	bne	a4,a5,800024dc <fsinit+0x60>
  initlog(dev, &sb);
    800024c0:	0000f597          	auipc	a1,0xf
    800024c4:	d9858593          	addi	a1,a1,-616 # 80011258 <sb>
    800024c8:	854a                	mv	a0,s2
    800024ca:	2a3000ef          	jal	80002f6c <initlog>
}
    800024ce:	70a2                	ld	ra,40(sp)
    800024d0:	7402                	ld	s0,32(sp)
    800024d2:	64e2                	ld	s1,24(sp)
    800024d4:	6942                	ld	s2,16(sp)
    800024d6:	69a2                	ld	s3,8(sp)
    800024d8:	6145                	addi	sp,sp,48
    800024da:	8082                	ret
    panic("invalid file system");
    800024dc:	00005517          	auipc	a0,0x5
    800024e0:	f8450513          	addi	a0,a0,-124 # 80007460 <etext+0x460>
    800024e4:	1c2030ef          	jal	800056a6 <panic>

00000000800024e8 <iinit>:
{
    800024e8:	7179                	addi	sp,sp,-48
    800024ea:	f406                	sd	ra,40(sp)
    800024ec:	f022                	sd	s0,32(sp)
    800024ee:	ec26                	sd	s1,24(sp)
    800024f0:	e84a                	sd	s2,16(sp)
    800024f2:	e44e                	sd	s3,8(sp)
    800024f4:	1800                	addi	s0,sp,48
  initlock(&itable.lock, "itable");
    800024f6:	00005597          	auipc	a1,0x5
    800024fa:	f8258593          	addi	a1,a1,-126 # 80007478 <etext+0x478>
    800024fe:	0000f517          	auipc	a0,0xf
    80002502:	d7a50513          	addi	a0,a0,-646 # 80011278 <itable>
    80002506:	44a030ef          	jal	80005950 <initlock>
  for(i = 0; i < NINODE; i++) {
    8000250a:	0000f497          	auipc	s1,0xf
    8000250e:	d9648493          	addi	s1,s1,-618 # 800112a0 <itable+0x28>
    80002512:	00011997          	auipc	s3,0x11
    80002516:	81e98993          	addi	s3,s3,-2018 # 80012d30 <log+0x10>
    initsleeplock(&itable.inode[i].lock, "inode");
    8000251a:	00005917          	auipc	s2,0x5
    8000251e:	f6690913          	addi	s2,s2,-154 # 80007480 <etext+0x480>
    80002522:	85ca                	mv	a1,s2
    80002524:	8526                	mv	a0,s1
    80002526:	525000ef          	jal	8000324a <initsleeplock>
  for(i = 0; i < NINODE; i++) {
    8000252a:	08848493          	addi	s1,s1,136
    8000252e:	ff349ae3          	bne	s1,s3,80002522 <iinit+0x3a>
}
    80002532:	70a2                	ld	ra,40(sp)
    80002534:	7402                	ld	s0,32(sp)
    80002536:	64e2                	ld	s1,24(sp)
    80002538:	6942                	ld	s2,16(sp)
    8000253a:	69a2                	ld	s3,8(sp)
    8000253c:	6145                	addi	sp,sp,48
    8000253e:	8082                	ret

0000000080002540 <ialloc>:
{
    80002540:	7139                	addi	sp,sp,-64
    80002542:	fc06                	sd	ra,56(sp)
    80002544:	f822                	sd	s0,48(sp)
    80002546:	0080                	addi	s0,sp,64
  for(inum = 1; inum < sb.ninodes; inum++){
    80002548:	0000f717          	auipc	a4,0xf
    8000254c:	d1c72703          	lw	a4,-740(a4) # 80011264 <sb+0xc>
    80002550:	4785                	li	a5,1
    80002552:	06e7f063          	bgeu	a5,a4,800025b2 <ialloc+0x72>
    80002556:	f426                	sd	s1,40(sp)
    80002558:	f04a                	sd	s2,32(sp)
    8000255a:	ec4e                	sd	s3,24(sp)
    8000255c:	e852                	sd	s4,16(sp)
    8000255e:	e456                	sd	s5,8(sp)
    80002560:	e05a                	sd	s6,0(sp)
    80002562:	8aaa                	mv	s5,a0
    80002564:	8b2e                	mv	s6,a1
    80002566:	893e                	mv	s2,a5
    bp = bread(dev, IBLOCK(inum, sb));
    80002568:	0000fa17          	auipc	s4,0xf
    8000256c:	cf0a0a13          	addi	s4,s4,-784 # 80011258 <sb>
    80002570:	00495593          	srli	a1,s2,0x4
    80002574:	018a2783          	lw	a5,24(s4)
    80002578:	9dbd                	addw	a1,a1,a5
    8000257a:	8556                	mv	a0,s5
    8000257c:	975ff0ef          	jal	80001ef0 <bread>
    80002580:	84aa                	mv	s1,a0
    dip = (struct dinode*)bp->data + inum%IPB;
    80002582:	05850993          	addi	s3,a0,88
    80002586:	00f97793          	andi	a5,s2,15
    8000258a:	079a                	slli	a5,a5,0x6
    8000258c:	99be                	add	s3,s3,a5
    if(dip->type == 0){  // a free inode
    8000258e:	00099783          	lh	a5,0(s3)
    80002592:	cb9d                	beqz	a5,800025c8 <ialloc+0x88>
    brelse(bp);
    80002594:	a65ff0ef          	jal	80001ff8 <brelse>
  for(inum = 1; inum < sb.ninodes; inum++){
    80002598:	0905                	addi	s2,s2,1
    8000259a:	00ca2703          	lw	a4,12(s4)
    8000259e:	0009079b          	sext.w	a5,s2
    800025a2:	fce7e7e3          	bltu	a5,a4,80002570 <ialloc+0x30>
    800025a6:	74a2                	ld	s1,40(sp)
    800025a8:	7902                	ld	s2,32(sp)
    800025aa:	69e2                	ld	s3,24(sp)
    800025ac:	6a42                	ld	s4,16(sp)
    800025ae:	6aa2                	ld	s5,8(sp)
    800025b0:	6b02                	ld	s6,0(sp)
  printf("ialloc: no inodes\n");
    800025b2:	00005517          	auipc	a0,0x5
    800025b6:	ed650513          	addi	a0,a0,-298 # 80007488 <etext+0x488>
    800025ba:	61d020ef          	jal	800053d6 <printf>
  return 0;
    800025be:	4501                	li	a0,0
}
    800025c0:	70e2                	ld	ra,56(sp)
    800025c2:	7442                	ld	s0,48(sp)
    800025c4:	6121                	addi	sp,sp,64
    800025c6:	8082                	ret
      memset(dip, 0, sizeof(*dip));
    800025c8:	04000613          	li	a2,64
    800025cc:	4581                	li	a1,0
    800025ce:	854e                	mv	a0,s3
    800025d0:	b7ffd0ef          	jal	8000014e <memset>
      dip->type = type;
    800025d4:	01699023          	sh	s6,0(s3)
      log_write(bp);   // mark it allocated on the disk
    800025d8:	8526                	mv	a0,s1
    800025da:	3a1000ef          	jal	8000317a <log_write>
      brelse(bp);
    800025de:	8526                	mv	a0,s1
    800025e0:	a19ff0ef          	jal	80001ff8 <brelse>
      return iget(dev, inum);
    800025e4:	0009059b          	sext.w	a1,s2
    800025e8:	8556                	mv	a0,s5
    800025ea:	de7ff0ef          	jal	800023d0 <iget>
    800025ee:	74a2                	ld	s1,40(sp)
    800025f0:	7902                	ld	s2,32(sp)
    800025f2:	69e2                	ld	s3,24(sp)
    800025f4:	6a42                	ld	s4,16(sp)
    800025f6:	6aa2                	ld	s5,8(sp)
    800025f8:	6b02                	ld	s6,0(sp)
    800025fa:	b7d9                	j	800025c0 <ialloc+0x80>

00000000800025fc <iupdate>:
{
    800025fc:	1101                	addi	sp,sp,-32
    800025fe:	ec06                	sd	ra,24(sp)
    80002600:	e822                	sd	s0,16(sp)
    80002602:	e426                	sd	s1,8(sp)
    80002604:	e04a                	sd	s2,0(sp)
    80002606:	1000                	addi	s0,sp,32
    80002608:	84aa                	mv	s1,a0
  bp = bread(ip->dev, IBLOCK(ip->inum, sb));
    8000260a:	415c                	lw	a5,4(a0)
    8000260c:	0047d79b          	srliw	a5,a5,0x4
    80002610:	0000f597          	auipc	a1,0xf
    80002614:	c605a583          	lw	a1,-928(a1) # 80011270 <sb+0x18>
    80002618:	9dbd                	addw	a1,a1,a5
    8000261a:	4108                	lw	a0,0(a0)
    8000261c:	8d5ff0ef          	jal	80001ef0 <bread>
    80002620:	892a                	mv	s2,a0
  dip = (struct dinode*)bp->data + ip->inum%IPB;
    80002622:	05850793          	addi	a5,a0,88
    80002626:	40d8                	lw	a4,4(s1)
    80002628:	8b3d                	andi	a4,a4,15
    8000262a:	071a                	slli	a4,a4,0x6
    8000262c:	97ba                	add	a5,a5,a4
  dip->type = ip->type;
    8000262e:	04449703          	lh	a4,68(s1)
    80002632:	00e79023          	sh	a4,0(a5)
  dip->major = ip->major;
    80002636:	04649703          	lh	a4,70(s1)
    8000263a:	00e79123          	sh	a4,2(a5)
  dip->minor = ip->minor;
    8000263e:	04849703          	lh	a4,72(s1)
    80002642:	00e79223          	sh	a4,4(a5)
  dip->nlink = ip->nlink;
    80002646:	04a49703          	lh	a4,74(s1)
    8000264a:	00e79323          	sh	a4,6(a5)
  dip->size = ip->size;
    8000264e:	44f8                	lw	a4,76(s1)
    80002650:	c798                	sw	a4,8(a5)
  memmove(dip->addrs, ip->addrs, sizeof(ip->addrs));
    80002652:	03400613          	li	a2,52
    80002656:	05048593          	addi	a1,s1,80
    8000265a:	00c78513          	addi	a0,a5,12
    8000265e:	b55fd0ef          	jal	800001b2 <memmove>
  log_write(bp);
    80002662:	854a                	mv	a0,s2
    80002664:	317000ef          	jal	8000317a <log_write>
  brelse(bp);
    80002668:	854a                	mv	a0,s2
    8000266a:	98fff0ef          	jal	80001ff8 <brelse>
}
    8000266e:	60e2                	ld	ra,24(sp)
    80002670:	6442                	ld	s0,16(sp)
    80002672:	64a2                	ld	s1,8(sp)
    80002674:	6902                	ld	s2,0(sp)
    80002676:	6105                	addi	sp,sp,32
    80002678:	8082                	ret

000000008000267a <idup>:
{
    8000267a:	1101                	addi	sp,sp,-32
    8000267c:	ec06                	sd	ra,24(sp)
    8000267e:	e822                	sd	s0,16(sp)
    80002680:	e426                	sd	s1,8(sp)
    80002682:	1000                	addi	s0,sp,32
    80002684:	84aa                	mv	s1,a0
  acquire(&itable.lock);
    80002686:	0000f517          	auipc	a0,0xf
    8000268a:	bf250513          	addi	a0,a0,-1038 # 80011278 <itable>
    8000268e:	346030ef          	jal	800059d4 <acquire>
  ip->ref++;
    80002692:	449c                	lw	a5,8(s1)
    80002694:	2785                	addiw	a5,a5,1
    80002696:	c49c                	sw	a5,8(s1)
  release(&itable.lock);
    80002698:	0000f517          	auipc	a0,0xf
    8000269c:	be050513          	addi	a0,a0,-1056 # 80011278 <itable>
    800026a0:	3c8030ef          	jal	80005a68 <release>
}
    800026a4:	8526                	mv	a0,s1
    800026a6:	60e2                	ld	ra,24(sp)
    800026a8:	6442                	ld	s0,16(sp)
    800026aa:	64a2                	ld	s1,8(sp)
    800026ac:	6105                	addi	sp,sp,32
    800026ae:	8082                	ret

00000000800026b0 <ilock>:
{
    800026b0:	1101                	addi	sp,sp,-32
    800026b2:	ec06                	sd	ra,24(sp)
    800026b4:	e822                	sd	s0,16(sp)
    800026b6:	e426                	sd	s1,8(sp)
    800026b8:	1000                	addi	s0,sp,32
  if(ip == 0 || ip->ref < 1)
    800026ba:	cd19                	beqz	a0,800026d8 <ilock+0x28>
    800026bc:	84aa                	mv	s1,a0
    800026be:	451c                	lw	a5,8(a0)
    800026c0:	00f05c63          	blez	a5,800026d8 <ilock+0x28>
  acquiresleep(&ip->lock);
    800026c4:	0541                	addi	a0,a0,16
    800026c6:	3bb000ef          	jal	80003280 <acquiresleep>
  if(ip->valid == 0){
    800026ca:	40bc                	lw	a5,64(s1)
    800026cc:	cf89                	beqz	a5,800026e6 <ilock+0x36>
}
    800026ce:	60e2                	ld	ra,24(sp)
    800026d0:	6442                	ld	s0,16(sp)
    800026d2:	64a2                	ld	s1,8(sp)
    800026d4:	6105                	addi	sp,sp,32
    800026d6:	8082                	ret
    800026d8:	e04a                	sd	s2,0(sp)
    panic("ilock");
    800026da:	00005517          	auipc	a0,0x5
    800026de:	dc650513          	addi	a0,a0,-570 # 800074a0 <etext+0x4a0>
    800026e2:	7c5020ef          	jal	800056a6 <panic>
    800026e6:	e04a                	sd	s2,0(sp)
    bp = bread(ip->dev, IBLOCK(ip->inum, sb));
    800026e8:	40dc                	lw	a5,4(s1)
    800026ea:	0047d79b          	srliw	a5,a5,0x4
    800026ee:	0000f597          	auipc	a1,0xf
    800026f2:	b825a583          	lw	a1,-1150(a1) # 80011270 <sb+0x18>
    800026f6:	9dbd                	addw	a1,a1,a5
    800026f8:	4088                	lw	a0,0(s1)
    800026fa:	ff6ff0ef          	jal	80001ef0 <bread>
    800026fe:	892a                	mv	s2,a0
    dip = (struct dinode*)bp->data + ip->inum%IPB;
    80002700:	05850593          	addi	a1,a0,88
    80002704:	40dc                	lw	a5,4(s1)
    80002706:	8bbd                	andi	a5,a5,15
    80002708:	079a                	slli	a5,a5,0x6
    8000270a:	95be                	add	a1,a1,a5
    ip->type = dip->type;
    8000270c:	00059783          	lh	a5,0(a1)
    80002710:	04f49223          	sh	a5,68(s1)
    ip->major = dip->major;
    80002714:	00259783          	lh	a5,2(a1)
    80002718:	04f49323          	sh	a5,70(s1)
    ip->minor = dip->minor;
    8000271c:	00459783          	lh	a5,4(a1)
    80002720:	04f49423          	sh	a5,72(s1)
    ip->nlink = dip->nlink;
    80002724:	00659783          	lh	a5,6(a1)
    80002728:	04f49523          	sh	a5,74(s1)
    ip->size = dip->size;
    8000272c:	459c                	lw	a5,8(a1)
    8000272e:	c4fc                	sw	a5,76(s1)
    memmove(ip->addrs, dip->addrs, sizeof(ip->addrs));
    80002730:	03400613          	li	a2,52
    80002734:	05b1                	addi	a1,a1,12
    80002736:	05048513          	addi	a0,s1,80
    8000273a:	a79fd0ef          	jal	800001b2 <memmove>
    brelse(bp);
    8000273e:	854a                	mv	a0,s2
    80002740:	8b9ff0ef          	jal	80001ff8 <brelse>
    ip->valid = 1;
    80002744:	4785                	li	a5,1
    80002746:	c0bc                	sw	a5,64(s1)
    if(ip->type == 0)
    80002748:	04449783          	lh	a5,68(s1)
    8000274c:	c399                	beqz	a5,80002752 <ilock+0xa2>
    8000274e:	6902                	ld	s2,0(sp)
    80002750:	bfbd                	j	800026ce <ilock+0x1e>
      panic("ilock: no type");
    80002752:	00005517          	auipc	a0,0x5
    80002756:	d5650513          	addi	a0,a0,-682 # 800074a8 <etext+0x4a8>
    8000275a:	74d020ef          	jal	800056a6 <panic>

000000008000275e <iunlock>:
{
    8000275e:	1101                	addi	sp,sp,-32
    80002760:	ec06                	sd	ra,24(sp)
    80002762:	e822                	sd	s0,16(sp)
    80002764:	e426                	sd	s1,8(sp)
    80002766:	e04a                	sd	s2,0(sp)
    80002768:	1000                	addi	s0,sp,32
  if(ip == 0 || !holdingsleep(&ip->lock) || ip->ref < 1)
    8000276a:	c505                	beqz	a0,80002792 <iunlock+0x34>
    8000276c:	84aa                	mv	s1,a0
    8000276e:	01050913          	addi	s2,a0,16
    80002772:	854a                	mv	a0,s2
    80002774:	38b000ef          	jal	800032fe <holdingsleep>
    80002778:	cd09                	beqz	a0,80002792 <iunlock+0x34>
    8000277a:	449c                	lw	a5,8(s1)
    8000277c:	00f05b63          	blez	a5,80002792 <iunlock+0x34>
  releasesleep(&ip->lock);
    80002780:	854a                	mv	a0,s2
    80002782:	345000ef          	jal	800032c6 <releasesleep>
}
    80002786:	60e2                	ld	ra,24(sp)
    80002788:	6442                	ld	s0,16(sp)
    8000278a:	64a2                	ld	s1,8(sp)
    8000278c:	6902                	ld	s2,0(sp)
    8000278e:	6105                	addi	sp,sp,32
    80002790:	8082                	ret
    panic("iunlock");
    80002792:	00005517          	auipc	a0,0x5
    80002796:	d2650513          	addi	a0,a0,-730 # 800074b8 <etext+0x4b8>
    8000279a:	70d020ef          	jal	800056a6 <panic>

000000008000279e <itrunc>:

// Truncate inode (discard contents).
// Caller must hold ip->lock.
void
itrunc(struct inode *ip)
{
    8000279e:	715d                	addi	sp,sp,-80
    800027a0:	e486                	sd	ra,72(sp)
    800027a2:	e0a2                	sd	s0,64(sp)
    800027a4:	fc26                	sd	s1,56(sp)
    800027a6:	f84a                	sd	s2,48(sp)
    800027a8:	f44e                	sd	s3,40(sp)
    800027aa:	0880                	addi	s0,sp,80
    800027ac:	89aa                	mv	s3,a0
  int i, j;
  struct buf *bp,*bpj;
  uint *a;
  uint *aj;
  for(i = 0; i < NDIRECT; i++){
    800027ae:	05050493          	addi	s1,a0,80
    800027b2:	07c50913          	addi	s2,a0,124
    800027b6:	a021                	j	800027be <itrunc+0x20>
    800027b8:	0491                	addi	s1,s1,4
    800027ba:	01248b63          	beq	s1,s2,800027d0 <itrunc+0x32>
    if(ip->addrs[i]){
    800027be:	408c                	lw	a1,0(s1)
    800027c0:	dde5                	beqz	a1,800027b8 <itrunc+0x1a>
      bfree(ip->dev, ip->addrs[i]);
    800027c2:	0009a503          	lw	a0,0(s3)
    800027c6:	91fff0ef          	jal	800020e4 <bfree>
      ip->addrs[i] = 0;
    800027ca:	0004a023          	sw	zero,0(s1)
    800027ce:	b7ed                	j	800027b8 <itrunc+0x1a>
    }
  }

  if(ip->addrs[NDIRECT]){
    800027d0:	07c9a583          	lw	a1,124(s3)
    800027d4:	e185                	bnez	a1,800027f4 <itrunc+0x56>
    }
    brelse(bp);
    bfree(ip->dev, ip->addrs[NDIRECT]);
    ip->addrs[NDIRECT] = 0;
  }
  if(ip->addrs[NDIRECT+1]){
    800027d6:	0809a583          	lw	a1,128(s3)
    800027da:	edb9                	bnez	a1,80002838 <itrunc+0x9a>
    ip->addrs[NDIRECT+1] = 0;
  }

   

  ip->size = 0;
    800027dc:	0409a623          	sw	zero,76(s3)
  iupdate(ip);
    800027e0:	854e                	mv	a0,s3
    800027e2:	e1bff0ef          	jal	800025fc <iupdate>
}
    800027e6:	60a6                	ld	ra,72(sp)
    800027e8:	6406                	ld	s0,64(sp)
    800027ea:	74e2                	ld	s1,56(sp)
    800027ec:	7942                	ld	s2,48(sp)
    800027ee:	79a2                	ld	s3,40(sp)
    800027f0:	6161                	addi	sp,sp,80
    800027f2:	8082                	ret
    800027f4:	f052                	sd	s4,32(sp)
    bp = bread(ip->dev, ip->addrs[NDIRECT]);
    800027f6:	0009a503          	lw	a0,0(s3)
    800027fa:	ef6ff0ef          	jal	80001ef0 <bread>
    800027fe:	8a2a                	mv	s4,a0
    for(j = 0; j < NINDIRECT; j++){
    80002800:	05850493          	addi	s1,a0,88
    80002804:	45850913          	addi	s2,a0,1112
    80002808:	a021                	j	80002810 <itrunc+0x72>
    8000280a:	0491                	addi	s1,s1,4
    8000280c:	01248963          	beq	s1,s2,8000281e <itrunc+0x80>
      if(a[j])
    80002810:	408c                	lw	a1,0(s1)
    80002812:	dde5                	beqz	a1,8000280a <itrunc+0x6c>
        bfree(ip->dev, a[j]);
    80002814:	0009a503          	lw	a0,0(s3)
    80002818:	8cdff0ef          	jal	800020e4 <bfree>
    8000281c:	b7fd                	j	8000280a <itrunc+0x6c>
    brelse(bp);
    8000281e:	8552                	mv	a0,s4
    80002820:	fd8ff0ef          	jal	80001ff8 <brelse>
    bfree(ip->dev, ip->addrs[NDIRECT]);
    80002824:	07c9a583          	lw	a1,124(s3)
    80002828:	0009a503          	lw	a0,0(s3)
    8000282c:	8b9ff0ef          	jal	800020e4 <bfree>
    ip->addrs[NDIRECT] = 0;
    80002830:	0609ae23          	sw	zero,124(s3)
    80002834:	7a02                	ld	s4,32(sp)
    80002836:	b745                	j	800027d6 <itrunc+0x38>
    80002838:	f052                	sd	s4,32(sp)
    8000283a:	ec56                	sd	s5,24(sp)
    8000283c:	e85a                	sd	s6,16(sp)
    8000283e:	e45e                	sd	s7,8(sp)
    80002840:	e062                	sd	s8,0(sp)
    bp = bread(ip->dev, ip->addrs[NDIRECT+1]);
    80002842:	0009a503          	lw	a0,0(s3)
    80002846:	eaaff0ef          	jal	80001ef0 <bread>
    8000284a:	8c2a                	mv	s8,a0
    for(j = 0; j < NINDIRECT; j++){
    8000284c:	05850a93          	addi	s5,a0,88
    80002850:	45850b93          	addi	s7,a0,1112
    80002854:	a03d                	j	80002882 <itrunc+0xe4>
      for(int k = 0; k < NINDIRECT; k++){
    80002856:	0491                	addi	s1,s1,4
    80002858:	01248963          	beq	s1,s2,8000286a <itrunc+0xcc>
        if(aj[k])
    8000285c:	408c                	lw	a1,0(s1)
    8000285e:	dde5                	beqz	a1,80002856 <itrunc+0xb8>
          bfree(ip->dev, aj[k]);
    80002860:	0009a503          	lw	a0,0(s3)
    80002864:	881ff0ef          	jal	800020e4 <bfree>
    80002868:	b7fd                	j	80002856 <itrunc+0xb8>
      brelse(bpj);
    8000286a:	8552                	mv	a0,s4
    8000286c:	f8cff0ef          	jal	80001ff8 <brelse>
      bfree(ip->dev, a[j]);
    80002870:	000b2583          	lw	a1,0(s6)
    80002874:	0009a503          	lw	a0,0(s3)
    80002878:	86dff0ef          	jal	800020e4 <bfree>
    for(j = 0; j < NINDIRECT; j++){
    8000287c:	0a91                	addi	s5,s5,4
    8000287e:	017a8f63          	beq	s5,s7,8000289c <itrunc+0xfe>
      bpj = bread(ip->dev, a[j]);
    80002882:	8b56                	mv	s6,s5
    80002884:	000aa583          	lw	a1,0(s5)
    80002888:	0009a503          	lw	a0,0(s3)
    8000288c:	e64ff0ef          	jal	80001ef0 <bread>
    80002890:	8a2a                	mv	s4,a0
      for(int k = 0; k < NINDIRECT; k++){
    80002892:	05850493          	addi	s1,a0,88
    80002896:	45850913          	addi	s2,a0,1112
    8000289a:	b7c9                	j	8000285c <itrunc+0xbe>
    brelse(bp);
    8000289c:	8562                	mv	a0,s8
    8000289e:	f5aff0ef          	jal	80001ff8 <brelse>
    bfree(ip->dev, ip->addrs[NDIRECT+1]);
    800028a2:	0809a583          	lw	a1,128(s3)
    800028a6:	0009a503          	lw	a0,0(s3)
    800028aa:	83bff0ef          	jal	800020e4 <bfree>
    ip->addrs[NDIRECT+1] = 0;
    800028ae:	0809a023          	sw	zero,128(s3)
    800028b2:	7a02                	ld	s4,32(sp)
    800028b4:	6ae2                	ld	s5,24(sp)
    800028b6:	6b42                	ld	s6,16(sp)
    800028b8:	6ba2                	ld	s7,8(sp)
    800028ba:	6c02                	ld	s8,0(sp)
    800028bc:	b705                	j	800027dc <itrunc+0x3e>

00000000800028be <iput>:
{
    800028be:	1101                	addi	sp,sp,-32
    800028c0:	ec06                	sd	ra,24(sp)
    800028c2:	e822                	sd	s0,16(sp)
    800028c4:	e426                	sd	s1,8(sp)
    800028c6:	1000                	addi	s0,sp,32
    800028c8:	84aa                	mv	s1,a0
  acquire(&itable.lock);
    800028ca:	0000f517          	auipc	a0,0xf
    800028ce:	9ae50513          	addi	a0,a0,-1618 # 80011278 <itable>
    800028d2:	102030ef          	jal	800059d4 <acquire>
  if(ip->ref == 1 && ip->valid && ip->nlink == 0){
    800028d6:	4498                	lw	a4,8(s1)
    800028d8:	4785                	li	a5,1
    800028da:	02f70063          	beq	a4,a5,800028fa <iput+0x3c>
  ip->ref--;
    800028de:	449c                	lw	a5,8(s1)
    800028e0:	37fd                	addiw	a5,a5,-1
    800028e2:	c49c                	sw	a5,8(s1)
  release(&itable.lock);
    800028e4:	0000f517          	auipc	a0,0xf
    800028e8:	99450513          	addi	a0,a0,-1644 # 80011278 <itable>
    800028ec:	17c030ef          	jal	80005a68 <release>
}
    800028f0:	60e2                	ld	ra,24(sp)
    800028f2:	6442                	ld	s0,16(sp)
    800028f4:	64a2                	ld	s1,8(sp)
    800028f6:	6105                	addi	sp,sp,32
    800028f8:	8082                	ret
  if(ip->ref == 1 && ip->valid && ip->nlink == 0){
    800028fa:	40bc                	lw	a5,64(s1)
    800028fc:	d3ed                	beqz	a5,800028de <iput+0x20>
    800028fe:	04a49783          	lh	a5,74(s1)
    80002902:	fff1                	bnez	a5,800028de <iput+0x20>
    80002904:	e04a                	sd	s2,0(sp)
    acquiresleep(&ip->lock);
    80002906:	01048913          	addi	s2,s1,16
    8000290a:	854a                	mv	a0,s2
    8000290c:	175000ef          	jal	80003280 <acquiresleep>
    release(&itable.lock);
    80002910:	0000f517          	auipc	a0,0xf
    80002914:	96850513          	addi	a0,a0,-1688 # 80011278 <itable>
    80002918:	150030ef          	jal	80005a68 <release>
    itrunc(ip);
    8000291c:	8526                	mv	a0,s1
    8000291e:	e81ff0ef          	jal	8000279e <itrunc>
    ip->type = 0;
    80002922:	04049223          	sh	zero,68(s1)
    iupdate(ip);
    80002926:	8526                	mv	a0,s1
    80002928:	cd5ff0ef          	jal	800025fc <iupdate>
    ip->valid = 0;
    8000292c:	0404a023          	sw	zero,64(s1)
    releasesleep(&ip->lock);
    80002930:	854a                	mv	a0,s2
    80002932:	195000ef          	jal	800032c6 <releasesleep>
    acquire(&itable.lock);
    80002936:	0000f517          	auipc	a0,0xf
    8000293a:	94250513          	addi	a0,a0,-1726 # 80011278 <itable>
    8000293e:	096030ef          	jal	800059d4 <acquire>
    80002942:	6902                	ld	s2,0(sp)
    80002944:	bf69                	j	800028de <iput+0x20>

0000000080002946 <iunlockput>:
{
    80002946:	1101                	addi	sp,sp,-32
    80002948:	ec06                	sd	ra,24(sp)
    8000294a:	e822                	sd	s0,16(sp)
    8000294c:	e426                	sd	s1,8(sp)
    8000294e:	1000                	addi	s0,sp,32
    80002950:	84aa                	mv	s1,a0
  iunlock(ip);
    80002952:	e0dff0ef          	jal	8000275e <iunlock>
  iput(ip);
    80002956:	8526                	mv	a0,s1
    80002958:	f67ff0ef          	jal	800028be <iput>
}
    8000295c:	60e2                	ld	ra,24(sp)
    8000295e:	6442                	ld	s0,16(sp)
    80002960:	64a2                	ld	s1,8(sp)
    80002962:	6105                	addi	sp,sp,32
    80002964:	8082                	ret

0000000080002966 <stati>:

// Copy stat information from inode.
// Caller must hold ip->lock.
void
stati(struct inode *ip, struct stat *st)
{
    80002966:	1141                	addi	sp,sp,-16
    80002968:	e406                	sd	ra,8(sp)
    8000296a:	e022                	sd	s0,0(sp)
    8000296c:	0800                	addi	s0,sp,16
  st->dev = ip->dev;
    8000296e:	411c                	lw	a5,0(a0)
    80002970:	c19c                	sw	a5,0(a1)
  st->ino = ip->inum;
    80002972:	415c                	lw	a5,4(a0)
    80002974:	c1dc                	sw	a5,4(a1)
  st->type = ip->type;
    80002976:	04451783          	lh	a5,68(a0)
    8000297a:	00f59423          	sh	a5,8(a1)
  st->nlink = ip->nlink;
    8000297e:	04a51783          	lh	a5,74(a0)
    80002982:	00f59523          	sh	a5,10(a1)
  st->size = ip->size;
    80002986:	04c56783          	lwu	a5,76(a0)
    8000298a:	e99c                	sd	a5,16(a1)
}
    8000298c:	60a2                	ld	ra,8(sp)
    8000298e:	6402                	ld	s0,0(sp)
    80002990:	0141                	addi	sp,sp,16
    80002992:	8082                	ret

0000000080002994 <readi>:
readi(struct inode *ip, int user_dst, uint64 dst, uint off, uint n)
{
  uint tot, m;
  struct buf *bp;

  if(off > ip->size || off + n < off)
    80002994:	457c                	lw	a5,76(a0)
    80002996:	0ed7e663          	bltu	a5,a3,80002a82 <readi+0xee>
{
    8000299a:	7159                	addi	sp,sp,-112
    8000299c:	f486                	sd	ra,104(sp)
    8000299e:	f0a2                	sd	s0,96(sp)
    800029a0:	eca6                	sd	s1,88(sp)
    800029a2:	e0d2                	sd	s4,64(sp)
    800029a4:	fc56                	sd	s5,56(sp)
    800029a6:	f85a                	sd	s6,48(sp)
    800029a8:	f45e                	sd	s7,40(sp)
    800029aa:	1880                	addi	s0,sp,112
    800029ac:	8b2a                	mv	s6,a0
    800029ae:	8bae                	mv	s7,a1
    800029b0:	8a32                	mv	s4,a2
    800029b2:	84b6                	mv	s1,a3
    800029b4:	8aba                	mv	s5,a4
  if(off > ip->size || off + n < off)
    800029b6:	9f35                	addw	a4,a4,a3
    return 0;
    800029b8:	4501                	li	a0,0
  if(off > ip->size || off + n < off)
    800029ba:	0ad76b63          	bltu	a4,a3,80002a70 <readi+0xdc>
    800029be:	e4ce                	sd	s3,72(sp)
  if(off + n > ip->size)
    800029c0:	00e7f463          	bgeu	a5,a4,800029c8 <readi+0x34>
    n = ip->size - off;
    800029c4:	40d78abb          	subw	s5,a5,a3

  for(tot=0; tot<n; tot+=m, off+=m, dst+=m){
    800029c8:	080a8b63          	beqz	s5,80002a5e <readi+0xca>
    800029cc:	e8ca                	sd	s2,80(sp)
    800029ce:	f062                	sd	s8,32(sp)
    800029d0:	ec66                	sd	s9,24(sp)
    800029d2:	e86a                	sd	s10,16(sp)
    800029d4:	e46e                	sd	s11,8(sp)
    800029d6:	4981                	li	s3,0
    uint addr = bmap(ip, off/BSIZE);
    if(addr == 0)
      break;
    bp = bread(ip->dev, addr);
    m = min(n - tot, BSIZE - off%BSIZE);
    800029d8:	40000c93          	li	s9,1024
    if(either_copyout(user_dst, dst, bp->data + (off % BSIZE), m) == -1) {
    800029dc:	5c7d                	li	s8,-1
    800029de:	a80d                	j	80002a10 <readi+0x7c>
    800029e0:	020d1d93          	slli	s11,s10,0x20
    800029e4:	020ddd93          	srli	s11,s11,0x20
    800029e8:	05890613          	addi	a2,s2,88
    800029ec:	86ee                	mv	a3,s11
    800029ee:	963e                	add	a2,a2,a5
    800029f0:	85d2                	mv	a1,s4
    800029f2:	855e                	mv	a0,s7
    800029f4:	c83fe0ef          	jal	80001676 <either_copyout>
    800029f8:	05850363          	beq	a0,s8,80002a3e <readi+0xaa>
      brelse(bp);
      tot = -1;
      break;
    }
    brelse(bp);
    800029fc:	854a                	mv	a0,s2
    800029fe:	dfaff0ef          	jal	80001ff8 <brelse>
  for(tot=0; tot<n; tot+=m, off+=m, dst+=m){
    80002a02:	013d09bb          	addw	s3,s10,s3
    80002a06:	009d04bb          	addw	s1,s10,s1
    80002a0a:	9a6e                	add	s4,s4,s11
    80002a0c:	0559f363          	bgeu	s3,s5,80002a52 <readi+0xbe>
    uint addr = bmap(ip, off/BSIZE);
    80002a10:	00a4d59b          	srliw	a1,s1,0xa
    80002a14:	855a                	mv	a0,s6
    80002a16:	84dff0ef          	jal	80002262 <bmap>
    80002a1a:	85aa                	mv	a1,a0
    if(addr == 0)
    80002a1c:	c139                	beqz	a0,80002a62 <readi+0xce>
    bp = bread(ip->dev, addr);
    80002a1e:	000b2503          	lw	a0,0(s6)
    80002a22:	cceff0ef          	jal	80001ef0 <bread>
    80002a26:	892a                	mv	s2,a0
    m = min(n - tot, BSIZE - off%BSIZE);
    80002a28:	3ff4f793          	andi	a5,s1,1023
    80002a2c:	40fc873b          	subw	a4,s9,a5
    80002a30:	413a86bb          	subw	a3,s5,s3
    80002a34:	8d3a                	mv	s10,a4
    80002a36:	fae6f5e3          	bgeu	a3,a4,800029e0 <readi+0x4c>
    80002a3a:	8d36                	mv	s10,a3
    80002a3c:	b755                	j	800029e0 <readi+0x4c>
      brelse(bp);
    80002a3e:	854a                	mv	a0,s2
    80002a40:	db8ff0ef          	jal	80001ff8 <brelse>
      tot = -1;
